ARM GAS  C:\Users\Brandon\AppData\Local\Temp\ccGHNimX.s 			page 1


   1              		.cpu cortex-m3
   2              		.eabi_attribute 20, 1
   3              		.eabi_attribute 21, 1
   4              		.eabi_attribute 23, 3
   5              		.eabi_attribute 24, 1
   6              		.eabi_attribute 25, 1
   7              		.eabi_attribute 26, 1
   8              		.eabi_attribute 30, 1
   9              		.eabi_attribute 34, 1
  10              		.eabi_attribute 18, 4
  11              		.file	"port_handler.c"
  12              		.text
  13              	.Ltext0:
  14              		.cfi_sections	.debug_frame
  15              		.section	.text.UART_DMA_Init,"ax",%progbits
  16              		.align	1
  17              		.global	UART_DMA_Init
  18              		.arch armv7-m
  19              		.syntax unified
  20              		.thumb
  21              		.thumb_func
  22              		.fpu softvfp
  24              	UART_DMA_Init:
  25              	.LFB527:
  26              		.file 1 "Src/port_handler.c"
   1:Src/port_handler.c **** #include "port_handler.h"
   2:Src/port_handler.c **** #include "main.h"
   3:Src/port_handler.c **** 
   4:Src/port_handler.c **** /* Fields -------------------------------------------------------------------*/
   5:Src/port_handler.c **** extern DMA_HandleTypeDef hdma_usart1_rx;
   6:Src/port_handler.c **** extern DMA_HandleTypeDef hdma_usart1_tx;
   7:Src/port_handler.c **** extern UART_HandleTypeDef huart1;
   8:Src/port_handler.c **** extern MessageQueue *message;
   9:Src/port_handler.c **** uint8_t temp_length;
  10:Src/port_handler.c **** uint8_t message_transferred;
  11:Src/port_handler.c **** 
  12:Src/port_handler.c **** /* Methods ------------------------------------------------------------------*/
  13:Src/port_handler.c **** 
  14:Src/port_handler.c **** /* @brief Initializes UART and DMA port with handle allowing for UART receive to have direct
  15:Src/port_handler.c ****  * memory access. Recevie uses idle line to trigger received event for variable message
  16:Src/port_handler.c ****  * lenght.
  17:Src/port_handler.c ****  * 
  18:Src/port_handler.c ****  * @param void
  19:Src/port_handler.c ****  * @return void
  20:Src/port_handler.c ****  */
  21:Src/port_handler.c **** void UART_DMA_Init(void) {
  27              		.loc 1 21 26 view -0
  28              		.cfi_startproc
  29              		@ args = 0, pretend = 0, frame = 0
  30              		@ frame_needed = 0, uses_anonymous_args = 0
  31 0000 10B5     		push	{r4, lr}
  32              	.LCFI0:
  33              		.cfi_def_cfa_offset 8
  34              		.cfi_offset 4, -8
  35              		.cfi_offset 14, -4
  22:Src/port_handler.c ****   rd_ptr = 0;
  36              		.loc 1 22 3 view .LVU1
ARM GAS  C:\Users\Brandon\AppData\Local\Temp\ccGHNimX.s 			page 2


  37              		.loc 1 22 10 is_stmt 0 view .LVU2
  38 0002 0D4B     		ldr	r3, .L3
  39 0004 0022     		movs	r2, #0
  40 0006 1A70     		strb	r2, [r3]
  23:Src/port_handler.c ****   
  24:Src/port_handler.c ****   HAL_UART_Receive_DMA(&huart1, rxBuffer, UART_RX__SZ);
  41              		.loc 1 24 3 is_stmt 1 view .LVU3
  42 0008 0C4C     		ldr	r4, .L3+4
  43 000a 4022     		movs	r2, #64
  44 000c 0C49     		ldr	r1, .L3+8
  45 000e 2046     		mov	r0, r4
  46 0010 FFF7FEFF 		bl	HAL_UART_Receive_DMA
  47              	.LVL0:
  25:Src/port_handler.c **** 
  26:Src/port_handler.c ****   __HAL_UART_ENABLE_IT(&huart1, UART_IT_IDLE);   // enable idle line interrupt  
  48              		.loc 1 26 3 view .LVU4
  49 0014 2268     		ldr	r2, [r4]
  50 0016 D368     		ldr	r3, [r2, #12]
  51 0018 43F01003 		orr	r3, r3, #16
  52 001c D360     		str	r3, [r2, #12]
  27:Src/port_handler.c ****   __HAL_DMA_ENABLE_IT (&hdma_usart1_rx, DMA_IT_TC);  // enable DMA Tx cplt interrupt
  53              		.loc 1 27 3 view .LVU5
  54 001e 094A     		ldr	r2, .L3+12
  55 0020 1168     		ldr	r1, [r2]
  56 0022 0B68     		ldr	r3, [r1]
  57 0024 43F00203 		orr	r3, r3, #2
  58 0028 0B60     		str	r3, [r1]
  28:Src/port_handler.c ****   __HAL_DMA_DISABLE_IT(&hdma_usart1_rx, DMA_IT_HT); // disable DMA half-transfer interrupt
  59              		.loc 1 28 3 view .LVU6
  60 002a 1268     		ldr	r2, [r2]
  61 002c 1368     		ldr	r3, [r2]
  62 002e 23F00403 		bic	r3, r3, #4
  63 0032 1360     		str	r3, [r2]
  29:Src/port_handler.c **** 
  30:Src/port_handler.c ****   //HAL_UART_Receive_IT(&huart1, rxBuffer, UART_RX__SZ);
  31:Src/port_handler.c **** }
  64              		.loc 1 31 1 is_stmt 0 view .LVU7
  65 0034 10BD     		pop	{r4, pc}
  66              	.L4:
  67 0036 00BF     		.align	2
  68              	.L3:
  69 0038 00000000 		.word	rd_ptr
  70 003c 00000000 		.word	huart1
  71 0040 00000000 		.word	rxBuffer
  72 0044 00000000 		.word	hdma_usart1_rx
  73              		.cfi_endproc
  74              	.LFE527:
  76              		.section	.text.rxBuffer_is_empty,"ax",%progbits
  77              		.align	1
  78              		.global	rxBuffer_is_empty
  79              		.syntax unified
  80              		.thumb
  81              		.thumb_func
  82              		.fpu softvfp
  84              	rxBuffer_is_empty:
  85              	.LFB530:
  32:Src/port_handler.c **** 
ARM GAS  C:\Users\Brandon\AppData\Local\Temp\ccGHNimX.s 			page 3


  33:Src/port_handler.c **** /* @brief Callback for UART RX idle line interrupt.
  34:Src/port_handler.c ****  * 
  35:Src/port_handler.c ****  * @param huart pointer to uart handle 
  36:Src/port_handler.c ****  * @return void
  37:Src/port_handler.c ****  */
  38:Src/port_handler.c **** void HAL_UART_RxCpltCallback(UART_HandleTypeDef *huart)
  39:Src/port_handler.c **** {
  40:Src/port_handler.c ****   message_transferred = 0;
  41:Src/port_handler.c ****   UART_rx_transfer_to_queue();  
  42:Src/port_handler.c **** }
  43:Src/port_handler.c **** 
  44:Src/port_handler.c **** /* @brief Transfers UART receive buffer to queue to enable prompt 
  45:Src/port_handler.c ****  * rx_buffer readines for next message. Throws error if receive
  46:Src/port_handler.c ****  * idle event is thrown but buffer is empty.
  47:Src/port_handler.c ****  * 
  48:Src/port_handler.c ****  * @param void 
  49:Src/port_handler.c ****  * @return void
  50:Src/port_handler.c ****  */
  51:Src/port_handler.c **** void UART_rx_transfer_to_queue(void) {
  52:Src/port_handler.c ****   while(!rxBuffer_is_empty() && !isFull(message)) {
  53:Src/port_handler.c ****     enQueue(message, rxBuffer_Get());
  54:Src/port_handler.c ****     message_transferred = 1;
  55:Src/port_handler.c ****   }
  56:Src/port_handler.c **** 
  57:Src/port_handler.c **** // TODO: good 
  58:Src/port_handler.c ****   // if(!message_transferred){
  59:Src/port_handler.c ****   //   Error_Handler();
  60:Src/port_handler.c ****   // }
  61:Src/port_handler.c **** 
  62:Src/port_handler.c **** }
  63:Src/port_handler.c **** 
  64:Src/port_handler.c **** /* @brief Determines receive buffer is empty.
  65:Src/port_handler.c ****  * 
  66:Src/port_handler.c ****  * @param void
  67:Src/port_handler.c ****  * @return 1 if buffer is empty
  68:Src/port_handler.c ****  */
  69:Src/port_handler.c **** uint8_t rxBuffer_is_empty(void) {
  86              		.loc 1 69 33 is_stmt 1 view -0
  87              		.cfi_startproc
  88              		@ args = 0, pretend = 0, frame = 0
  89              		@ frame_needed = 0, uses_anonymous_args = 0
  90              		@ link register save eliminated.
  70:Src/port_handler.c ****   uint16_t dma_ptr = UART_DMA_WRITE_PTR;
  91              		.loc 1 70 3 view .LVU9
  92              		.loc 1 70 22 is_stmt 0 view .LVU10
  93 0000 074B     		ldr	r3, .L8
  94 0002 5B6B     		ldr	r3, [r3, #52]
  95 0004 1B68     		ldr	r3, [r3]
  96 0006 5B68     		ldr	r3, [r3, #4]
  97 0008 9BB2     		uxth	r3, r3
  98              	.LVL1:
  71:Src/port_handler.c **** 	if(rd_ptr == dma_ptr) {
  99              		.loc 1 71 2 is_stmt 1 view .LVU11
 100              		.loc 1 71 12 is_stmt 0 view .LVU12
 101 000a 064A     		ldr	r2, .L8+4
 102 000c 1278     		ldrb	r2, [r2]	@ zero_extendqisi2
 103              		.loc 1 71 4 view .LVU13
ARM GAS  C:\Users\Brandon\AppData\Local\Temp\ccGHNimX.s 			page 4


 104 000e 5B42     		rsbs	r3, r3, #0
 105              	.LVL2:
 106              		.loc 1 71 4 view .LVU14
 107 0010 03F03F03 		and	r3, r3, #63
 108              	.LVL3:
 109              		.loc 1 71 4 view .LVU15
 110 0014 9A42     		cmp	r2, r3
 111 0016 01D0     		beq	.L7
  72:Src/port_handler.c **** 		return 1;
  73:Src/port_handler.c **** 	}
  74:Src/port_handler.c **** 	return 0;
 112              		.loc 1 74 9 view .LVU16
 113 0018 0020     		movs	r0, #0
 114 001a 7047     		bx	lr
 115              	.L7:
  72:Src/port_handler.c **** 		return 1;
 116              		.loc 1 72 10 view .LVU17
 117 001c 0120     		movs	r0, #1
  75:Src/port_handler.c **** }
 118              		.loc 1 75 1 view .LVU18
 119 001e 7047     		bx	lr
 120              	.L9:
 121              		.align	2
 122              	.L8:
 123 0020 00000000 		.word	huart1
 124 0024 00000000 		.word	rd_ptr
 125              		.cfi_endproc
 126              	.LFE530:
 128              		.section	.text.rxBuffer_Get,"ax",%progbits
 129              		.align	1
 130              		.global	rxBuffer_Get
 131              		.syntax unified
 132              		.thumb
 133              		.thumb_func
 134              		.fpu softvfp
 136              	rxBuffer_Get:
 137              	.LFB531:
  76:Src/port_handler.c **** 
  77:Src/port_handler.c **** /* @brief Grabs 1 byte of receive buffer.
  78:Src/port_handler.c ****  * 
  79:Src/port_handler.c ****  * @param void
  80:Src/port_handler.c ****  * @return 1 byte from receive buffer
  81:Src/port_handler.c ****  */
  82:Src/port_handler.c **** uint8_t rxBuffer_Get(void) {
 138              		.loc 1 82 28 is_stmt 1 view -0
 139              		.cfi_startproc
 140              		@ args = 0, pretend = 0, frame = 0
 141              		@ frame_needed = 0, uses_anonymous_args = 0
 142              		@ link register save eliminated.
  83:Src/port_handler.c **** 	uint8_t message_byte = 0;
 143              		.loc 1 83 2 view .LVU20
 144              	.LVL4:
  84:Src/port_handler.c ****   uint16_t dma_ptr = UART_DMA_WRITE_PTR;
 145              		.loc 1 84 3 view .LVU21
 146              		.loc 1 84 22 is_stmt 0 view .LVU22
 147 0000 0B4B     		ldr	r3, .L13
 148 0002 5B6B     		ldr	r3, [r3, #52]
ARM GAS  C:\Users\Brandon\AppData\Local\Temp\ccGHNimX.s 			page 5


 149 0004 1B68     		ldr	r3, [r3]
 150 0006 5B68     		ldr	r3, [r3, #4]
 151 0008 9BB2     		uxth	r3, r3
 152              	.LVL5:
  85:Src/port_handler.c **** 	if(rd_ptr != dma_ptr) {
 153              		.loc 1 85 2 is_stmt 1 view .LVU23
 154              		.loc 1 85 12 is_stmt 0 view .LVU24
 155 000a 0A4A     		ldr	r2, .L13+4
 156 000c 1278     		ldrb	r2, [r2]	@ zero_extendqisi2
 157 000e 91B2     		uxth	r1, r2
 158              		.loc 1 85 4 view .LVU25
 159 0010 5B42     		rsbs	r3, r3, #0
 160              	.LVL6:
 161              		.loc 1 85 4 view .LVU26
 162 0012 03F03F03 		and	r3, r3, #63
 163              	.LVL7:
 164              		.loc 1 85 4 view .LVU27
 165 0016 9942     		cmp	r1, r3
 166 0018 07D0     		beq	.L12
  86:Src/port_handler.c **** 		message_byte = rxBuffer[rd_ptr++];
 167              		.loc 1 86 3 is_stmt 1 view .LVU28
 168              		.loc 1 86 33 is_stmt 0 view .LVU29
 169 001a 531C     		adds	r3, r2, #1
 170              		.loc 1 86 16 view .LVU30
 171 001c 0649     		ldr	r1, .L13+8
 172 001e 885C     		ldrb	r0, [r1, r2]	@ zero_extendqisi2
 173              	.LVL8:
  87:Src/port_handler.c **** 		rd_ptr &= (UART_RX__SZ - 1);
 174              		.loc 1 87 3 is_stmt 1 view .LVU31
 175              		.loc 1 87 10 is_stmt 0 view .LVU32
 176 0020 03F03F03 		and	r3, r3, #63
 177 0024 034A     		ldr	r2, .L13+4
 178 0026 1370     		strb	r3, [r2]
 179 0028 7047     		bx	lr
 180              	.LVL9:
 181              	.L12:
  83:Src/port_handler.c ****   uint16_t dma_ptr = UART_DMA_WRITE_PTR;
 182              		.loc 1 83 10 view .LVU33
 183 002a 0020     		movs	r0, #0
 184              	.LVL10:
  88:Src/port_handler.c **** 	}
  89:Src/port_handler.c **** 	return message_byte;
 185              		.loc 1 89 2 is_stmt 1 view .LVU34
  90:Src/port_handler.c **** }
 186              		.loc 1 90 1 is_stmt 0 view .LVU35
 187 002c 7047     		bx	lr
 188              	.L14:
 189 002e 00BF     		.align	2
 190              	.L13:
 191 0030 00000000 		.word	huart1
 192 0034 00000000 		.word	rd_ptr
 193 0038 00000000 		.word	rxBuffer
 194              		.cfi_endproc
 195              	.LFE531:
 197              		.section	.text.UART_rx_transfer_to_queue,"ax",%progbits
 198              		.align	1
 199              		.global	UART_rx_transfer_to_queue
ARM GAS  C:\Users\Brandon\AppData\Local\Temp\ccGHNimX.s 			page 6


 200              		.syntax unified
 201              		.thumb
 202              		.thumb_func
 203              		.fpu softvfp
 205              	UART_rx_transfer_to_queue:
 206              	.LFB529:
  51:Src/port_handler.c ****   while(!rxBuffer_is_empty() && !isFull(message)) {
 207              		.loc 1 51 38 is_stmt 1 view -0
 208              		.cfi_startproc
 209              		@ args = 0, pretend = 0, frame = 0
 210              		@ frame_needed = 0, uses_anonymous_args = 0
 211 0000 10B5     		push	{r4, lr}
 212              	.LCFI1:
 213              		.cfi_def_cfa_offset 8
 214              		.cfi_offset 4, -8
 215              		.cfi_offset 14, -4
  52:Src/port_handler.c ****     enQueue(message, rxBuffer_Get());
 216              		.loc 1 52 3 view .LVU37
 217              	.L16:
  52:Src/port_handler.c ****     enQueue(message, rxBuffer_Get());
 218              		.loc 1 52 8 view .LVU38
  52:Src/port_handler.c ****     enQueue(message, rxBuffer_Get());
 219              		.loc 1 52 10 is_stmt 0 view .LVU39
 220 0002 FFF7FEFF 		bl	rxBuffer_is_empty
 221              	.LVL11:
  52:Src/port_handler.c ****     enQueue(message, rxBuffer_Get());
 222              		.loc 1 52 8 view .LVU40
 223 0006 80B9     		cbnz	r0, .L15
  52:Src/port_handler.c ****     enQueue(message, rxBuffer_Get());
 224              		.loc 1 52 34 discriminator 1 view .LVU41
 225 0008 084B     		ldr	r3, .L20
 226 000a 1868     		ldr	r0, [r3]
 227 000c FFF7FEFF 		bl	isFull
 228              	.LVL12:
  52:Src/port_handler.c ****     enQueue(message, rxBuffer_Get());
 229              		.loc 1 52 30 discriminator 1 view .LVU42
 230 0010 58B9     		cbnz	r0, .L15
  53:Src/port_handler.c ****     message_transferred = 1;
 231              		.loc 1 53 5 is_stmt 1 view .LVU43
 232 0012 064B     		ldr	r3, .L20
 233 0014 1C68     		ldr	r4, [r3]
 234 0016 FFF7FEFF 		bl	rxBuffer_Get
 235              	.LVL13:
 236 001a 0146     		mov	r1, r0
 237 001c 2046     		mov	r0, r4
 238 001e FFF7FEFF 		bl	enQueue
 239              	.LVL14:
  54:Src/port_handler.c ****   }
 240              		.loc 1 54 5 view .LVU44
  54:Src/port_handler.c ****   }
 241              		.loc 1 54 25 is_stmt 0 view .LVU45
 242 0022 034B     		ldr	r3, .L20+4
 243 0024 0122     		movs	r2, #1
 244 0026 1A70     		strb	r2, [r3]
 245 0028 EBE7     		b	.L16
 246              	.L15:
  62:Src/port_handler.c **** 
ARM GAS  C:\Users\Brandon\AppData\Local\Temp\ccGHNimX.s 			page 7


 247              		.loc 1 62 1 view .LVU46
 248 002a 10BD     		pop	{r4, pc}
 249              	.L21:
 250              		.align	2
 251              	.L20:
 252 002c 00000000 		.word	message
 253 0030 00000000 		.word	message_transferred
 254              		.cfi_endproc
 255              	.LFE529:
 257              		.section	.text.HAL_UART_RxCpltCallback,"ax",%progbits
 258              		.align	1
 259              		.global	HAL_UART_RxCpltCallback
 260              		.syntax unified
 261              		.thumb
 262              		.thumb_func
 263              		.fpu softvfp
 265              	HAL_UART_RxCpltCallback:
 266              	.LVL15:
 267              	.LFB528:
  39:Src/port_handler.c ****   message_transferred = 0;
 268              		.loc 1 39 1 is_stmt 1 view -0
 269              		.cfi_startproc
 270              		@ args = 0, pretend = 0, frame = 0
 271              		@ frame_needed = 0, uses_anonymous_args = 0
  39:Src/port_handler.c ****   message_transferred = 0;
 272              		.loc 1 39 1 is_stmt 0 view .LVU48
 273 0000 08B5     		push	{r3, lr}
 274              	.LCFI2:
 275              		.cfi_def_cfa_offset 8
 276              		.cfi_offset 3, -8
 277              		.cfi_offset 14, -4
  40:Src/port_handler.c ****   UART_rx_transfer_to_queue();  
 278              		.loc 1 40 3 is_stmt 1 view .LVU49
  40:Src/port_handler.c ****   UART_rx_transfer_to_queue();  
 279              		.loc 1 40 23 is_stmt 0 view .LVU50
 280 0002 034B     		ldr	r3, .L24
 281 0004 0022     		movs	r2, #0
 282 0006 1A70     		strb	r2, [r3]
  41:Src/port_handler.c **** }
 283              		.loc 1 41 3 is_stmt 1 view .LVU51
 284 0008 FFF7FEFF 		bl	UART_rx_transfer_to_queue
 285              	.LVL16:
  42:Src/port_handler.c **** 
 286              		.loc 1 42 1 is_stmt 0 view .LVU52
 287 000c 08BD     		pop	{r3, pc}
 288              	.L25:
 289 000e 00BF     		.align	2
 290              	.L24:
 291 0010 00000000 		.word	message_transferred
 292              		.cfi_endproc
 293              	.LFE528:
 295              		.section	.text.transmit_buffer,"ax",%progbits
 296              		.align	1
 297              		.global	transmit_buffer
 298              		.syntax unified
 299              		.thumb
 300              		.thumb_func
ARM GAS  C:\Users\Brandon\AppData\Local\Temp\ccGHNimX.s 			page 8


 301              		.fpu softvfp
 303              	transmit_buffer:
 304              	.LVL17:
 305              	.LFB532:
  91:Src/port_handler.c **** 
  92:Src/port_handler.c **** /* @brief Transmits message response with 2 millisecond timeout.
  93:Src/port_handler.c ****  * 
  94:Src/port_handler.c ****  * @param1 response[] message to send back to master
  95:Src/port_handler.c ****  * @param2 length message length
  96:Src/port_handler.c ****  * @return void *
  97:Src/port_handler.c ****  */
  98:Src/port_handler.c **** void transmit_buffer(uint8_t response[], uint16_t length){
 306              		.loc 1 98 58 is_stmt 1 view -0
 307              		.cfi_startproc
 308              		@ args = 0, pretend = 0, frame = 0
 309              		@ frame_needed = 0, uses_anonymous_args = 0
 310              		.loc 1 98 58 is_stmt 0 view .LVU54
 311 0000 70B5     		push	{r4, r5, r6, lr}
 312              	.LCFI3:
 313              		.cfi_def_cfa_offset 16
 314              		.cfi_offset 4, -16
 315              		.cfi_offset 5, -12
 316              		.cfi_offset 6, -8
 317              		.cfi_offset 14, -4
 318 0002 0646     		mov	r6, r0
 319 0004 0D46     		mov	r5, r1
  99:Src/port_handler.c ****   int i;
 320              		.loc 1 99 3 is_stmt 1 view .LVU55
 100:Src/port_handler.c ****   HAL_GPIO_WritePin(DATA_DIR_GPIO_Port, DATA_DIR_Pin, HIGH);
 321              		.loc 1 100 3 view .LVU56
 322 0006 0122     		movs	r2, #1
 323 0008 2021     		movs	r1, #32
 324              	.LVL18:
 325              		.loc 1 100 3 is_stmt 0 view .LVU57
 326 000a 0E48     		ldr	r0, .L32
 327              	.LVL19:
 328              		.loc 1 100 3 view .LVU58
 329 000c FFF7FEFF 		bl	HAL_GPIO_WritePin
 330              	.LVL20:
 101:Src/port_handler.c ****   for (i=0; i<length; i++){
 331              		.loc 1 101 3 is_stmt 1 view .LVU59
 332              		.loc 1 101 9 is_stmt 0 view .LVU60
 333 0010 0023     		movs	r3, #0
 334              	.LVL21:
 335              	.L27:
 336              		.loc 1 101 13 is_stmt 1 discriminator 1 view .LVU61
 337              		.loc 1 101 3 is_stmt 0 discriminator 1 view .LVU62
 338 0012 9D42     		cmp	r5, r3
 339 0014 08DD     		ble	.L29
 102:Src/port_handler.c ****     txBuffer[i] = response[i];
 340              		.loc 1 102 5 is_stmt 1 discriminator 3 view .LVU63
 341              		.loc 1 102 27 is_stmt 0 discriminator 3 view .LVU64
 342 0016 F45C     		ldrb	r4, [r6, r3]	@ zero_extendqisi2
 343              		.loc 1 102 17 discriminator 3 view .LVU65
 344 0018 0B4A     		ldr	r2, .L32+4
 345 001a D454     		strb	r4, [r2, r3]
 101:Src/port_handler.c ****   for (i=0; i<length; i++){
ARM GAS  C:\Users\Brandon\AppData\Local\Temp\ccGHNimX.s 			page 9


 346              		.loc 1 101 23 is_stmt 1 discriminator 3 view .LVU66
 101:Src/port_handler.c ****   for (i=0; i<length; i++){
 347              		.loc 1 101 24 is_stmt 0 discriminator 3 view .LVU67
 348 001c 0133     		adds	r3, r3, #1
 349              	.LVL22:
 101:Src/port_handler.c ****   for (i=0; i<length; i++){
 350              		.loc 1 101 24 discriminator 3 view .LVU68
 351 001e F8E7     		b	.L27
 352              	.L30:
 103:Src/port_handler.c ****   }
 104:Src/port_handler.c ****   /*  Fill rest of buffer with 0's*/
 105:Src/port_handler.c ****   for (i; i<UART_TX__SZ; i++){
 106:Src/port_handler.c ****     txBuffer[i] = 0;
 353              		.loc 1 106 5 is_stmt 1 discriminator 2 view .LVU69
 354              		.loc 1 106 17 is_stmt 0 discriminator 2 view .LVU70
 355 0020 094A     		ldr	r2, .L32+4
 356 0022 0021     		movs	r1, #0
 357 0024 D154     		strb	r1, [r2, r3]
 105:Src/port_handler.c ****     txBuffer[i] = 0;
 358              		.loc 1 105 26 is_stmt 1 discriminator 2 view .LVU71
 105:Src/port_handler.c ****     txBuffer[i] = 0;
 359              		.loc 1 105 27 is_stmt 0 discriminator 2 view .LVU72
 360 0026 0133     		adds	r3, r3, #1
 361              	.LVL23:
 362              	.L29:
 105:Src/port_handler.c ****     txBuffer[i] = 0;
 363              		.loc 1 105 11 is_stmt 1 discriminator 1 view .LVU73
 105:Src/port_handler.c ****     txBuffer[i] = 0;
 364              		.loc 1 105 3 is_stmt 0 discriminator 1 view .LVU74
 365 0028 3F2B     		cmp	r3, #63
 366 002a F9DD     		ble	.L30
 107:Src/port_handler.c ****   }
 108:Src/port_handler.c ****   HAL_UART_Transmit(&huart1, txBuffer, UART_TX__SZ, 2);
 367              		.loc 1 108 3 is_stmt 1 view .LVU75
 368 002c 0223     		movs	r3, #2
 369              	.LVL24:
 370              		.loc 1 108 3 is_stmt 0 view .LVU76
 371 002e 4022     		movs	r2, #64
 372 0030 0549     		ldr	r1, .L32+4
 373 0032 0648     		ldr	r0, .L32+8
 374 0034 FFF7FEFF 		bl	HAL_UART_Transmit
 375              	.LVL25:
 109:Src/port_handler.c ****   HAL_GPIO_WritePin(DATA_DIR_GPIO_Port, DATA_DIR_Pin, LOW);
 376              		.loc 1 109 3 is_stmt 1 view .LVU77
 377 0038 0022     		movs	r2, #0
 378 003a 2021     		movs	r1, #32
 379 003c 0148     		ldr	r0, .L32
 380 003e FFF7FEFF 		bl	HAL_GPIO_WritePin
 381              	.LVL26:
 110:Src/port_handler.c **** }
 382              		.loc 1 110 1 is_stmt 0 view .LVU78
 383 0042 70BD     		pop	{r4, r5, r6, pc}
 384              	.LVL27:
 385              	.L33:
 386              		.loc 1 110 1 view .LVU79
 387              		.align	2
 388              	.L32:
ARM GAS  C:\Users\Brandon\AppData\Local\Temp\ccGHNimX.s 			page 10


 389 0044 000C0140 		.word	1073810432
 390 0048 00000000 		.word	txBuffer
 391 004c 00000000 		.word	huart1
 392              		.cfi_endproc
 393              	.LFE532:
 395              		.comm	message_transferred,1,1
 396              		.comm	temp_length,1,1
 397              		.comm	rd_ptr,1,1
 398              		.comm	txBuffer,64,4
 399              		.comm	rxBuffer,64,4
 400              		.text
 401              	.Letext0:
 402              		.file 2 "c:\\program files (x86)\\gnu tools arm embedded\\9 2019-q4-major\\arm-none-eabi\\include\
 403              		.file 3 "c:\\program files (x86)\\gnu tools arm embedded\\9 2019-q4-major\\arm-none-eabi\\include\
 404              		.file 4 "c:\\program files (x86)\\gnu tools arm embedded\\9 2019-q4-major\\arm-none-eabi\\include\
 405              		.file 5 "c:\\program files (x86)\\gnu tools arm embedded\\9 2019-q4-major\\arm-none-eabi\\include\
 406              		.file 6 "c:\\program files (x86)\\gnu tools arm embedded\\9 2019-q4-major\\lib\\gcc\\arm-none-eabi
 407              		.file 7 "c:\\program files (x86)\\gnu tools arm embedded\\9 2019-q4-major\\arm-none-eabi\\include\
 408              		.file 8 "c:\\program files (x86)\\gnu tools arm embedded\\9 2019-q4-major\\arm-none-eabi\\include\
 409              		.file 9 "Inc/queue.h"
 410              		.file 10 "Inc/port_handler.h"
 411              		.file 11 "Drivers/CMSIS/Include/core_cm3.h"
 412              		.file 12 "Drivers/CMSIS/Device/ST/STM32F1xx/Include/system_stm32f1xx.h"
 413              		.file 13 "Drivers/CMSIS/Device/ST/STM32F1xx/Include/stm32f103xb.h"
 414              		.file 14 "Drivers/STM32F1xx_HAL_Driver/Inc/stm32f1xx_hal_def.h"
 415              		.file 15 "Drivers/STM32F1xx_HAL_Driver/Inc/stm32f1xx_hal_gpio.h"
 416              		.file 16 "Drivers/STM32F1xx_HAL_Driver/Inc/stm32f1xx_hal_dma.h"
 417              		.file 17 "Drivers/STM32F1xx_HAL_Driver/Inc/stm32f1xx_hal_uart.h"
 418              		.file 18 "Drivers/STM32F1xx_HAL_Driver/Inc/stm32f1xx_hal.h"
 419              		.file 19 "Drivers/STM32F1xx_HAL_Driver/Inc/stm32f1xx_ll_dma.h"
ARM GAS  C:\Users\Brandon\AppData\Local\Temp\ccGHNimX.s 			page 11


DEFINED SYMBOLS
                            *ABS*:00000000 port_handler.c
C:\Users\Brandon\AppData\Local\Temp\ccGHNimX.s:16     .text.UART_DMA_Init:00000000 $t
C:\Users\Brandon\AppData\Local\Temp\ccGHNimX.s:24     .text.UART_DMA_Init:00000000 UART_DMA_Init
C:\Users\Brandon\AppData\Local\Temp\ccGHNimX.s:69     .text.UART_DMA_Init:00000038 $d
                            *COM*:00000001 rd_ptr
                            *COM*:00000040 rxBuffer
C:\Users\Brandon\AppData\Local\Temp\ccGHNimX.s:77     .text.rxBuffer_is_empty:00000000 $t
C:\Users\Brandon\AppData\Local\Temp\ccGHNimX.s:84     .text.rxBuffer_is_empty:00000000 rxBuffer_is_empty
C:\Users\Brandon\AppData\Local\Temp\ccGHNimX.s:123    .text.rxBuffer_is_empty:00000020 $d
C:\Users\Brandon\AppData\Local\Temp\ccGHNimX.s:129    .text.rxBuffer_Get:00000000 $t
C:\Users\Brandon\AppData\Local\Temp\ccGHNimX.s:136    .text.rxBuffer_Get:00000000 rxBuffer_Get
C:\Users\Brandon\AppData\Local\Temp\ccGHNimX.s:191    .text.rxBuffer_Get:00000030 $d
C:\Users\Brandon\AppData\Local\Temp\ccGHNimX.s:198    .text.UART_rx_transfer_to_queue:00000000 $t
C:\Users\Brandon\AppData\Local\Temp\ccGHNimX.s:205    .text.UART_rx_transfer_to_queue:00000000 UART_rx_transfer_to_queue
C:\Users\Brandon\AppData\Local\Temp\ccGHNimX.s:252    .text.UART_rx_transfer_to_queue:0000002c $d
                            *COM*:00000001 message_transferred
C:\Users\Brandon\AppData\Local\Temp\ccGHNimX.s:258    .text.HAL_UART_RxCpltCallback:00000000 $t
C:\Users\Brandon\AppData\Local\Temp\ccGHNimX.s:265    .text.HAL_UART_RxCpltCallback:00000000 HAL_UART_RxCpltCallback
C:\Users\Brandon\AppData\Local\Temp\ccGHNimX.s:291    .text.HAL_UART_RxCpltCallback:00000010 $d
C:\Users\Brandon\AppData\Local\Temp\ccGHNimX.s:296    .text.transmit_buffer:00000000 $t
C:\Users\Brandon\AppData\Local\Temp\ccGHNimX.s:303    .text.transmit_buffer:00000000 transmit_buffer
C:\Users\Brandon\AppData\Local\Temp\ccGHNimX.s:389    .text.transmit_buffer:00000044 $d
                            *COM*:00000040 txBuffer
                            *COM*:00000001 temp_length

UNDEFINED SYMBOLS
HAL_UART_Receive_DMA
huart1
hdma_usart1_rx
isFull
enQueue
message
HAL_GPIO_WritePin
HAL_UART_Transmit
