ARM GAS  C:\Users\Brandon\AppData\Local\Temp\cctgDsHy.s 			page 1


   1              		.cpu cortex-m3
   2              		.eabi_attribute 20, 1
   3              		.eabi_attribute 21, 1
   4              		.eabi_attribute 23, 3
   5              		.eabi_attribute 24, 1
   6              		.eabi_attribute 25, 1
   7              		.eabi_attribute 26, 1
   8              		.eabi_attribute 30, 1
   9              		.eabi_attribute 34, 1
  10              		.eabi_attribute 18, 4
  11              		.file	"queue.c"
  12              		.text
  13              	.Ltext0:
  14              		.cfi_sections	.debug_frame
  15              		.section	.text.initializeParameters,"ax",%progbits
  16              		.align	1
  17              		.global	initializeParameters
  18              		.arch armv7-m
  19              		.syntax unified
  20              		.thumb
  21              		.thumb_func
  22              		.fpu softvfp
  24              	initializeParameters:
  25              	.LVL0:
  26              	.LFB0:
  27              		.file 1 "Src/queue.c"
   1:Src/queue.c   **** #include "queue.h"
   2:Src/queue.c   **** 
   3:Src/queue.c   **** Parameters* initializeParameters(int id, int baud){
  28              		.loc 1 3 51 view -0
  29              		.cfi_startproc
  30              		@ args = 0, pretend = 0, frame = 0
  31              		@ frame_needed = 0, uses_anonymous_args = 0
  32              		.loc 1 3 51 is_stmt 0 view .LVU1
  33 0000 38B5     		push	{r3, r4, r5, lr}
  34              	.LCFI0:
  35              		.cfi_def_cfa_offset 16
  36              		.cfi_offset 3, -16
  37              		.cfi_offset 4, -12
  38              		.cfi_offset 5, -8
  39              		.cfi_offset 14, -4
  40 0002 0546     		mov	r5, r0
  41 0004 0C46     		mov	r4, r1
   4:Src/queue.c   ****   Parameters *param = (Parameters*) malloc(sizeof(Parameters));
  42              		.loc 1 4 3 is_stmt 1 view .LVU2
  43              		.loc 1 4 37 is_stmt 0 view .LVU3
  44 0006 0820     		movs	r0, #8
  45              	.LVL1:
  46              		.loc 1 4 37 view .LVU4
  47 0008 FFF7FEFF 		bl	malloc
  48              	.LVL2:
   5:Src/queue.c   ****   param->ID = id;
  49              		.loc 1 5 3 is_stmt 1 view .LVU5
  50              		.loc 1 5 13 is_stmt 0 view .LVU6
  51 000c 0560     		str	r5, [r0]
   6:Src/queue.c   ****   param->BAUD = baud;
  52              		.loc 1 6 3 is_stmt 1 view .LVU7
ARM GAS  C:\Users\Brandon\AppData\Local\Temp\cctgDsHy.s 			page 2


  53              		.loc 1 6 15 is_stmt 0 view .LVU8
  54 000e 4460     		str	r4, [r0, #4]
   7:Src/queue.c   ****   return param;
  55              		.loc 1 7 3 is_stmt 1 view .LVU9
   8:Src/queue.c   **** }
  56              		.loc 1 8 1 is_stmt 0 view .LVU10
  57 0010 38BD     		pop	{r3, r4, r5, pc}
  58              		.loc 1 8 1 view .LVU11
  59              		.cfi_endproc
  60              	.LFE0:
  62              		.section	.text.constructMessage,"ax",%progbits
  63              		.align	1
  64              		.global	constructMessage
  65              		.syntax unified
  66              		.thumb
  67              		.thumb_func
  68              		.fpu softvfp
  70              	constructMessage:
  71              	.LFB1:
   9:Src/queue.c   **** 
  10:Src/queue.c   **** 
  11:Src/queue.c   **** MessageQueue* constructMessage(){
  72              		.loc 1 11 33 is_stmt 1 view -0
  73              		.cfi_startproc
  74              		@ args = 0, pretend = 0, frame = 0
  75              		@ frame_needed = 0, uses_anonymous_args = 0
  76 0000 08B5     		push	{r3, lr}
  77              	.LCFI1:
  78              		.cfi_def_cfa_offset 8
  79              		.cfi_offset 3, -8
  80              		.cfi_offset 14, -4
  12:Src/queue.c   ****     MessageQueue *queue = (MessageQueue*) malloc(sizeof (MessageQueue)); 
  81              		.loc 1 12 5 view .LVU13
  82              		.loc 1 12 43 is_stmt 0 view .LVU14
  83 0002 4FF40270 		mov	r0, #520
  84 0006 FFF7FEFF 		bl	malloc
  85              	.LVL3:
  13:Src/queue.c   ****     int i;
  86              		.loc 1 13 5 is_stmt 1 view .LVU15
  14:Src/queue.c   ****     queue->front = -1;
  87              		.loc 1 14 5 view .LVU16
  88              		.loc 1 14 18 is_stmt 0 view .LVU17
  89 000a 4FF0FF33 		mov	r3, #-1
  90 000e C0F80032 		str	r3, [r0, #512]
  15:Src/queue.c   ****     queue->rear = 0;
  91              		.loc 1 15 5 is_stmt 1 view .LVU18
  92              		.loc 1 15 17 is_stmt 0 view .LVU19
  93 0012 0023     		movs	r3, #0
  94 0014 C0F80432 		str	r3, [r0, #516]
  16:Src/queue.c   ****     for (i=0; i<SIZE; i++){
  95              		.loc 1 16 5 is_stmt 1 view .LVU20
  96              	.LVL4:
  97              	.L4:
  98              		.loc 1 16 15 discriminator 1 view .LVU21
  99              		.loc 1 16 5 is_stmt 0 discriminator 1 view .LVU22
 100 0018 B3F5007F 		cmp	r3, #512
 101 001c 03DA     		bge	.L7
ARM GAS  C:\Users\Brandon\AppData\Local\Temp\cctgDsHy.s 			page 3


  17:Src/queue.c   ****         queue->message[i] = 0;    
 102              		.loc 1 17 9 is_stmt 1 discriminator 3 view .LVU23
 103              		.loc 1 17 27 is_stmt 0 discriminator 3 view .LVU24
 104 001e 0022     		movs	r2, #0
 105 0020 C254     		strb	r2, [r0, r3]
  16:Src/queue.c   ****     for (i=0; i<SIZE; i++){
 106              		.loc 1 16 23 is_stmt 1 discriminator 3 view .LVU25
  16:Src/queue.c   ****     for (i=0; i<SIZE; i++){
 107              		.loc 1 16 24 is_stmt 0 discriminator 3 view .LVU26
 108 0022 0133     		adds	r3, r3, #1
 109              	.LVL5:
  16:Src/queue.c   ****     for (i=0; i<SIZE; i++){
 110              		.loc 1 16 24 discriminator 3 view .LVU27
 111 0024 F8E7     		b	.L4
 112              	.L7:
  18:Src/queue.c   ****     }
  19:Src/queue.c   ****     return queue;
  20:Src/queue.c   **** }
 113              		.loc 1 20 1 view .LVU28
 114 0026 08BD     		pop	{r3, pc}
 115              		.loc 1 20 1 view .LVU29
 116              		.cfi_endproc
 117              	.LFE1:
 119              		.section	.text.peek,"ax",%progbits
 120              		.align	1
 121              		.global	peek
 122              		.syntax unified
 123              		.thumb
 124              		.thumb_func
 125              		.fpu softvfp
 127              	peek:
 128              	.LVL6:
 129              	.LFB4:
  21:Src/queue.c   **** 
  22:Src/queue.c   **** 
  23:Src/queue.c   **** int enQueue(MessageQueue *queue, uint8_t data){
  24:Src/queue.c   ****     if(isFull(queue)){
  25:Src/queue.c   ****         return FALSE;
  26:Src/queue.c   ****     } else if(isEmpty(queue)){
  27:Src/queue.c   ****         queue->front = queue->rear;
  28:Src/queue.c   ****         queue->message[queue->rear] = data;
  29:Src/queue.c   ****         return TRUE;
  30:Src/queue.c   ****     } else {
  31:Src/queue.c   ****         queue->rear = nextRear(queue);
  32:Src/queue.c   ****         queue->message[queue->rear] = data;
  33:Src/queue.c   ****         return TRUE;
  34:Src/queue.c   ****     }
  35:Src/queue.c   **** }
  36:Src/queue.c   **** 
  37:Src/queue.c   **** 
  38:Src/queue.c   **** uint8_t deQueue(MessageQueue *queue){
  39:Src/queue.c   ****     if(isEmpty(queue)){
  40:Src/queue.c   ****         return 0;
  41:Src/queue.c   ****     } else if (queue->front==queue->rear){
  42:Src/queue.c   ****         uint8_t temp = queue->message[queue->front];
  43:Src/queue.c   ****         queue->front = -1;
  44:Src/queue.c   ****         return temp;
ARM GAS  C:\Users\Brandon\AppData\Local\Temp\cctgDsHy.s 			page 4


  45:Src/queue.c   ****     } else {
  46:Src/queue.c   ****         uint8_t temp = queue->message[queue->front];
  47:Src/queue.c   ****         queue->front = nextFront(queue);
  48:Src/queue.c   ****         return temp;
  49:Src/queue.c   ****     }
  50:Src/queue.c   **** }
  51:Src/queue.c   **** 
  52:Src/queue.c   **** uint8_t peek(MessageQueue *queue){
 130              		.loc 1 52 34 is_stmt 1 view -0
 131              		.cfi_startproc
 132              		@ args = 0, pretend = 0, frame = 0
 133              		@ frame_needed = 0, uses_anonymous_args = 0
 134              		@ link register save eliminated.
  53:Src/queue.c   ****     return queue->message[queue->front];
 135              		.loc 1 53 5 view .LVU31
 136              		.loc 1 53 32 is_stmt 0 view .LVU32
 137 0000 D0F80032 		ldr	r3, [r0, #512]
  54:Src/queue.c   **** }
 138              		.loc 1 54 1 view .LVU33
 139 0004 C05C     		ldrb	r0, [r0, r3]	@ zero_extendqisi2
 140              	.LVL7:
 141              		.loc 1 54 1 view .LVU34
 142 0006 7047     		bx	lr
 143              		.cfi_endproc
 144              	.LFE4:
 146              		.section	.text.isEmpty,"ax",%progbits
 147              		.align	1
 148              		.global	isEmpty
 149              		.syntax unified
 150              		.thumb
 151              		.thumb_func
 152              		.fpu softvfp
 154              	isEmpty:
 155              	.LVL8:
 156              	.LFB5:
  55:Src/queue.c   **** 
  56:Src/queue.c   **** int isEmpty(MessageQueue *queue){
 157              		.loc 1 56 33 is_stmt 1 view -0
 158              		.cfi_startproc
 159              		@ args = 0, pretend = 0, frame = 0
 160              		@ frame_needed = 0, uses_anonymous_args = 0
 161              		@ link register save eliminated.
  57:Src/queue.c   ****     if(queue->front == -1){
 162              		.loc 1 57 5 view .LVU36
 163              		.loc 1 57 13 is_stmt 0 view .LVU37
 164 0000 D0F80032 		ldr	r3, [r0, #512]
 165              		.loc 1 57 7 view .LVU38
 166 0004 B3F1FF3F 		cmp	r3, #-1
 167 0008 01D0     		beq	.L11
  58:Src/queue.c   ****         return TRUE;    
  59:Src/queue.c   ****     }
  60:Src/queue.c   ****     return FALSE;
 168              		.loc 1 60 12 view .LVU39
 169 000a 0020     		movs	r0, #0
 170              	.LVL9:
 171              		.loc 1 60 12 view .LVU40
 172 000c 7047     		bx	lr
ARM GAS  C:\Users\Brandon\AppData\Local\Temp\cctgDsHy.s 			page 5


 173              	.LVL10:
 174              	.L11:
  58:Src/queue.c   ****         return TRUE;    
 175              		.loc 1 58 16 view .LVU41
 176 000e 0120     		movs	r0, #1
 177              	.LVL11:
  61:Src/queue.c   **** }
 178              		.loc 1 61 1 view .LVU42
 179 0010 7047     		bx	lr
 180              		.cfi_endproc
 181              	.LFE5:
 183              		.section	.text.nextRear,"ax",%progbits
 184              		.align	1
 185              		.global	nextRear
 186              		.syntax unified
 187              		.thumb
 188              		.thumb_func
 189              		.fpu softvfp
 191              	nextRear:
 192              	.LVL12:
 193              	.LFB7:
  62:Src/queue.c   **** 
  63:Src/queue.c   **** int isFull(MessageQueue *queue){
  64:Src/queue.c   ****     if(nextRear(queue)==queue->front){
  65:Src/queue.c   ****         return TRUE;
  66:Src/queue.c   ****     }
  67:Src/queue.c   ****     return FALSE;
  68:Src/queue.c   **** }
  69:Src/queue.c   **** 
  70:Src/queue.c   **** int nextRear(MessageQueue *queue){
 194              		.loc 1 70 34 is_stmt 1 view -0
 195              		.cfi_startproc
 196              		@ args = 0, pretend = 0, frame = 0
 197              		@ frame_needed = 0, uses_anonymous_args = 0
 198              		@ link register save eliminated.
  71:Src/queue.c   ****     return (queue->rear + 1) % SIZE;
 199              		.loc 1 71 5 view .LVU44
 200              		.loc 1 71 18 is_stmt 0 view .LVU45
 201 0000 D0F80402 		ldr	r0, [r0, #516]
 202              	.LVL13:
 203              		.loc 1 71 25 view .LVU46
 204 0004 0130     		adds	r0, r0, #1
 205              		.loc 1 71 30 view .LVU47
 206 0006 4342     		rsbs	r3, r0, #0
 207 0008 C0F30800 		ubfx	r0, r0, #0, #9
 208 000c C3F30803 		ubfx	r3, r3, #0, #9
  72:Src/queue.c   **** }
 209              		.loc 1 72 1 view .LVU48
 210 0010 58BF     		it	pl
 211 0012 5842     		rsbpl	r0, r3, #0
 212 0014 7047     		bx	lr
 213              		.cfi_endproc
 214              	.LFE7:
 216              		.section	.text.isFull,"ax",%progbits
 217              		.align	1
 218              		.global	isFull
 219              		.syntax unified
ARM GAS  C:\Users\Brandon\AppData\Local\Temp\cctgDsHy.s 			page 6


 220              		.thumb
 221              		.thumb_func
 222              		.fpu softvfp
 224              	isFull:
 225              	.LVL14:
 226              	.LFB6:
  63:Src/queue.c   ****     if(nextRear(queue)==queue->front){
 227              		.loc 1 63 32 is_stmt 1 view -0
 228              		.cfi_startproc
 229              		@ args = 0, pretend = 0, frame = 0
 230              		@ frame_needed = 0, uses_anonymous_args = 0
  63:Src/queue.c   ****     if(nextRear(queue)==queue->front){
 231              		.loc 1 63 32 is_stmt 0 view .LVU50
 232 0000 10B5     		push	{r4, lr}
 233              	.LCFI2:
 234              		.cfi_def_cfa_offset 8
 235              		.cfi_offset 4, -8
 236              		.cfi_offset 14, -4
 237 0002 0446     		mov	r4, r0
  64:Src/queue.c   ****         return TRUE;
 238              		.loc 1 64 5 is_stmt 1 view .LVU51
 239              	.LBB2:
  64:Src/queue.c   ****         return TRUE;
 240              		.loc 1 64 8 is_stmt 0 view .LVU52
 241 0004 FFF7FEFF 		bl	nextRear
 242              	.LVL15:
  64:Src/queue.c   ****         return TRUE;
 243              		.loc 1 64 30 view .LVU53
 244 0008 D4F80032 		ldr	r3, [r4, #512]
  64:Src/queue.c   ****         return TRUE;
 245              		.loc 1 64 7 view .LVU54
 246 000c 9842     		cmp	r0, r3
 247 000e 01D0     		beq	.L15
 248              	.LBE2:
  67:Src/queue.c   **** }
 249              		.loc 1 67 12 view .LVU55
 250 0010 0020     		movs	r0, #0
 251              	.L13:
  68:Src/queue.c   **** 
 252              		.loc 1 68 1 view .LVU56
 253 0012 10BD     		pop	{r4, pc}
 254              	.LVL16:
 255              	.L15:
 256              	.LBB3:
  65:Src/queue.c   ****     }
 257              		.loc 1 65 16 view .LVU57
 258 0014 0120     		movs	r0, #1
 259 0016 FCE7     		b	.L13
 260              	.LBE3:
 261              		.cfi_endproc
 262              	.LFE6:
 264              		.section	.text.enQueue,"ax",%progbits
 265              		.align	1
 266              		.global	enQueue
 267              		.syntax unified
 268              		.thumb
 269              		.thumb_func
ARM GAS  C:\Users\Brandon\AppData\Local\Temp\cctgDsHy.s 			page 7


 270              		.fpu softvfp
 272              	enQueue:
 273              	.LVL17:
 274              	.LFB2:
  23:Src/queue.c   ****     if(isFull(queue)){
 275              		.loc 1 23 47 is_stmt 1 view -0
 276              		.cfi_startproc
 277              		@ args = 0, pretend = 0, frame = 0
 278              		@ frame_needed = 0, uses_anonymous_args = 0
  23:Src/queue.c   ****     if(isFull(queue)){
 279              		.loc 1 23 47 is_stmt 0 view .LVU59
 280 0000 38B5     		push	{r3, r4, r5, lr}
 281              	.LCFI3:
 282              		.cfi_def_cfa_offset 16
 283              		.cfi_offset 3, -16
 284              		.cfi_offset 4, -12
 285              		.cfi_offset 5, -8
 286              		.cfi_offset 14, -4
 287 0002 0446     		mov	r4, r0
 288 0004 0D46     		mov	r5, r1
  24:Src/queue.c   ****         return FALSE;
 289              		.loc 1 24 5 is_stmt 1 view .LVU60
  24:Src/queue.c   ****         return FALSE;
 290              		.loc 1 24 8 is_stmt 0 view .LVU61
 291 0006 FFF7FEFF 		bl	isFull
 292              	.LVL18:
  24:Src/queue.c   ****         return FALSE;
 293              		.loc 1 24 7 view .LVU62
 294 000a 90B9     		cbnz	r0, .L20
  26:Src/queue.c   ****         queue->front = queue->rear;
 295              		.loc 1 26 12 is_stmt 1 view .LVU63
  26:Src/queue.c   ****         queue->front = queue->rear;
 296              		.loc 1 26 15 is_stmt 0 view .LVU64
 297 000c 2046     		mov	r0, r4
 298 000e FFF7FEFF 		bl	isEmpty
 299              	.LVL19:
  26:Src/queue.c   ****         queue->front = queue->rear;
 300              		.loc 1 26 14 view .LVU65
 301 0012 30B1     		cbz	r0, .L19
  27:Src/queue.c   ****         queue->message[queue->rear] = data;
 302              		.loc 1 27 9 is_stmt 1 view .LVU66
  27:Src/queue.c   ****         queue->message[queue->rear] = data;
 303              		.loc 1 27 29 is_stmt 0 view .LVU67
 304 0014 D4F80432 		ldr	r3, [r4, #516]
  27:Src/queue.c   ****         queue->message[queue->rear] = data;
 305              		.loc 1 27 22 view .LVU68
 306 0018 C4F80032 		str	r3, [r4, #512]
  28:Src/queue.c   ****         return TRUE;
 307              		.loc 1 28 9 is_stmt 1 view .LVU69
  28:Src/queue.c   ****         return TRUE;
 308              		.loc 1 28 37 is_stmt 0 view .LVU70
 309 001c E554     		strb	r5, [r4, r3]
  29:Src/queue.c   ****     } else {
 310              		.loc 1 29 9 is_stmt 1 view .LVU71
  29:Src/queue.c   ****     } else {
 311              		.loc 1 29 16 is_stmt 0 view .LVU72
 312 001e 0120     		movs	r0, #1
ARM GAS  C:\Users\Brandon\AppData\Local\Temp\cctgDsHy.s 			page 8


 313 0020 08E0     		b	.L17
 314              	.L19:
 315              	.LBB4:
  31:Src/queue.c   ****         queue->message[queue->rear] = data;
 316              		.loc 1 31 9 is_stmt 1 view .LVU73
  31:Src/queue.c   ****         queue->message[queue->rear] = data;
 317              		.loc 1 31 23 is_stmt 0 view .LVU74
 318 0022 2046     		mov	r0, r4
 319 0024 FFF7FEFF 		bl	nextRear
 320              	.LVL20:
  31:Src/queue.c   ****         queue->message[queue->rear] = data;
 321              		.loc 1 31 21 view .LVU75
 322 0028 C4F80402 		str	r0, [r4, #516]
  32:Src/queue.c   ****         return TRUE;
 323              		.loc 1 32 9 is_stmt 1 view .LVU76
  32:Src/queue.c   ****         return TRUE;
 324              		.loc 1 32 37 is_stmt 0 view .LVU77
 325 002c 2554     		strb	r5, [r4, r0]
  33:Src/queue.c   ****     }
 326              		.loc 1 33 9 is_stmt 1 view .LVU78
  33:Src/queue.c   ****     }
 327              		.loc 1 33 16 is_stmt 0 view .LVU79
 328 002e 0120     		movs	r0, #1
 329 0030 00E0     		b	.L17
 330              	.L20:
  33:Src/queue.c   ****     }
 331              		.loc 1 33 16 view .LVU80
 332              	.LBE4:
  25:Src/queue.c   ****     } else if(isEmpty(queue)){
 333              		.loc 1 25 16 view .LVU81
 334 0032 0020     		movs	r0, #0
 335              	.L17:
  35:Src/queue.c   **** 
 336              		.loc 1 35 1 view .LVU82
 337 0034 38BD     		pop	{r3, r4, r5, pc}
  35:Src/queue.c   **** 
 338              		.loc 1 35 1 view .LVU83
 339              		.cfi_endproc
 340              	.LFE2:
 342              		.section	.text.nextFront,"ax",%progbits
 343              		.align	1
 344              		.global	nextFront
 345              		.syntax unified
 346              		.thumb
 347              		.thumb_func
 348              		.fpu softvfp
 350              	nextFront:
 351              	.LVL21:
 352              	.LFB8:
  73:Src/queue.c   **** 
  74:Src/queue.c   **** int nextFront(MessageQueue *queue){
 353              		.loc 1 74 35 is_stmt 1 view -0
 354              		.cfi_startproc
 355              		@ args = 0, pretend = 0, frame = 0
 356              		@ frame_needed = 0, uses_anonymous_args = 0
 357              		@ link register save eliminated.
  75:Src/queue.c   ****     return (queue->front + 1) % SIZE;
ARM GAS  C:\Users\Brandon\AppData\Local\Temp\cctgDsHy.s 			page 9


 358              		.loc 1 75 5 view .LVU85
 359              		.loc 1 75 18 is_stmt 0 view .LVU86
 360 0000 D0F80002 		ldr	r0, [r0, #512]
 361              	.LVL22:
 362              		.loc 1 75 26 view .LVU87
 363 0004 0130     		adds	r0, r0, #1
 364              		.loc 1 75 31 view .LVU88
 365 0006 4342     		rsbs	r3, r0, #0
 366 0008 C0F30800 		ubfx	r0, r0, #0, #9
 367 000c C3F30803 		ubfx	r3, r3, #0, #9
  76:Src/queue.c   **** }
 368              		.loc 1 76 1 view .LVU89
 369 0010 58BF     		it	pl
 370 0012 5842     		rsbpl	r0, r3, #0
 371 0014 7047     		bx	lr
 372              		.cfi_endproc
 373              	.LFE8:
 375              		.section	.text.deQueue,"ax",%progbits
 376              		.align	1
 377              		.global	deQueue
 378              		.syntax unified
 379              		.thumb
 380              		.thumb_func
 381              		.fpu softvfp
 383              	deQueue:
 384              	.LVL23:
 385              	.LFB3:
  38:Src/queue.c   ****     if(isEmpty(queue)){
 386              		.loc 1 38 37 is_stmt 1 view -0
 387              		.cfi_startproc
 388              		@ args = 0, pretend = 0, frame = 0
 389              		@ frame_needed = 0, uses_anonymous_args = 0
  38:Src/queue.c   ****     if(isEmpty(queue)){
 390              		.loc 1 38 37 is_stmt 0 view .LVU91
 391 0000 38B5     		push	{r3, r4, r5, lr}
 392              	.LCFI4:
 393              		.cfi_def_cfa_offset 16
 394              		.cfi_offset 3, -16
 395              		.cfi_offset 4, -12
 396              		.cfi_offset 5, -8
 397              		.cfi_offset 14, -4
 398 0002 0446     		mov	r4, r0
  39:Src/queue.c   ****         return 0;
 399              		.loc 1 39 5 is_stmt 1 view .LVU92
  39:Src/queue.c   ****         return 0;
 400              		.loc 1 39 8 is_stmt 0 view .LVU93
 401 0004 FFF7FEFF 		bl	isEmpty
 402              	.LVL24:
  39:Src/queue.c   ****         return 0;
 403              		.loc 1 39 7 view .LVU94
 404 0008 98B9     		cbnz	r0, .L26
  41:Src/queue.c   ****         uint8_t temp = queue->message[queue->front];
 405              		.loc 1 41 12 is_stmt 1 view .LVU95
  41:Src/queue.c   ****         uint8_t temp = queue->message[queue->front];
 406              		.loc 1 41 21 is_stmt 0 view .LVU96
 407 000a D4F80032 		ldr	r3, [r4, #512]
  41:Src/queue.c   ****         uint8_t temp = queue->message[queue->front];
ARM GAS  C:\Users\Brandon\AppData\Local\Temp\cctgDsHy.s 			page 10


 408              		.loc 1 41 35 view .LVU97
 409 000e D4F80422 		ldr	r2, [r4, #516]
  41:Src/queue.c   ****         uint8_t temp = queue->message[queue->front];
 410              		.loc 1 41 15 view .LVU98
 411 0012 9342     		cmp	r3, r2
 412 0014 07D0     		beq	.L28
 413              	.LBB5:
  46:Src/queue.c   ****         queue->front = nextFront(queue);
 414              		.loc 1 46 9 is_stmt 1 view .LVU99
  46:Src/queue.c   ****         queue->front = nextFront(queue);
 415              		.loc 1 46 17 is_stmt 0 view .LVU100
 416 0016 E55C     		ldrb	r5, [r4, r3]	@ zero_extendqisi2
 417              	.LVL25:
  47:Src/queue.c   ****         return temp;
 418              		.loc 1 47 9 is_stmt 1 view .LVU101
  47:Src/queue.c   ****         return temp;
 419              		.loc 1 47 24 is_stmt 0 view .LVU102
 420 0018 2046     		mov	r0, r4
 421 001a FFF7FEFF 		bl	nextFront
 422              	.LVL26:
  47:Src/queue.c   ****         return temp;
 423              		.loc 1 47 22 view .LVU103
 424 001e C4F80002 		str	r0, [r4, #512]
  48:Src/queue.c   ****     }
 425              		.loc 1 48 9 is_stmt 1 view .LVU104
 426              	.LVL27:
 427              	.L24:
  48:Src/queue.c   ****     }
 428              		.loc 1 48 9 is_stmt 0 view .LVU105
 429              	.LBE5:
  50:Src/queue.c   **** 
 430              		.loc 1 50 1 view .LVU106
 431 0022 2846     		mov	r0, r5
 432 0024 38BD     		pop	{r3, r4, r5, pc}
 433              	.LVL28:
 434              	.L28:
 435              	.LBB6:
  42:Src/queue.c   ****         queue->front = -1;
 436              		.loc 1 42 9 is_stmt 1 view .LVU107
  42:Src/queue.c   ****         queue->front = -1;
 437              		.loc 1 42 17 is_stmt 0 view .LVU108
 438 0026 E55C     		ldrb	r5, [r4, r3]	@ zero_extendqisi2
 439              	.LVL29:
  43:Src/queue.c   ****         return temp;
 440              		.loc 1 43 9 is_stmt 1 view .LVU109
  43:Src/queue.c   ****         return temp;
 441              		.loc 1 43 22 is_stmt 0 view .LVU110
 442 0028 4FF0FF33 		mov	r3, #-1
 443 002c C4F80032 		str	r3, [r4, #512]
  44:Src/queue.c   ****     } else {
 444              		.loc 1 44 9 is_stmt 1 view .LVU111
  44:Src/queue.c   ****     } else {
 445              		.loc 1 44 16 is_stmt 0 view .LVU112
 446 0030 F7E7     		b	.L24
 447              	.LVL30:
 448              	.L26:
  44:Src/queue.c   ****     } else {
ARM GAS  C:\Users\Brandon\AppData\Local\Temp\cctgDsHy.s 			page 11


 449              		.loc 1 44 16 view .LVU113
 450              	.LBE6:
  40:Src/queue.c   ****     } else if (queue->front==queue->rear){
 451              		.loc 1 40 16 view .LVU114
 452 0032 0025     		movs	r5, #0
 453 0034 F5E7     		b	.L24
 454              		.cfi_endproc
 455              	.LFE3:
 457              		.text
 458              	.Letext0:
 459              		.file 2 "c:\\program files (x86)\\gnu tools arm embedded\\9 2019-q4-major\\arm-none-eabi\\include\
 460              		.file 3 "c:\\program files (x86)\\gnu tools arm embedded\\9 2019-q4-major\\arm-none-eabi\\include\
 461              		.file 4 "c:\\program files (x86)\\gnu tools arm embedded\\9 2019-q4-major\\arm-none-eabi\\include\
 462              		.file 5 "c:\\program files (x86)\\gnu tools arm embedded\\9 2019-q4-major\\arm-none-eabi\\include\
 463              		.file 6 "c:\\program files (x86)\\gnu tools arm embedded\\9 2019-q4-major\\lib\\gcc\\arm-none-eabi
 464              		.file 7 "c:\\program files (x86)\\gnu tools arm embedded\\9 2019-q4-major\\arm-none-eabi\\include\
 465              		.file 8 "c:\\program files (x86)\\gnu tools arm embedded\\9 2019-q4-major\\arm-none-eabi\\include\
 466              		.file 9 "Inc/queue.h"
ARM GAS  C:\Users\Brandon\AppData\Local\Temp\cctgDsHy.s 			page 12

