ARM GAS  C:\Users\Brandon\AppData\Local\Temp\ccaAxuKQ.s 			page 1


   1              		.cpu cortex-m3
   2              		.eabi_attribute 20, 1
   3              		.eabi_attribute 21, 1
   4              		.eabi_attribute 23, 3
   5              		.eabi_attribute 24, 1
   6              		.eabi_attribute 25, 1
   7              		.eabi_attribute 26, 1
   8              		.eabi_attribute 30, 1
   9              		.eabi_attribute 34, 1
  10              		.eabi_attribute 18, 4
  11              		.file	"queue.c"
  12              		.text
  13              	.Ltext0:
  14              		.cfi_sections	.debug_frame
  15              		.section	.text.constructMessage,"ax",%progbits
  16              		.align	1
  17              		.global	constructMessage
  18              		.arch armv7-m
  19              		.syntax unified
  20              		.thumb
  21              		.thumb_func
  22              		.fpu softvfp
  24              	constructMessage:
  25              	.LFB0:
  26              		.file 1 "Src/queue.c"
   1:Src/queue.c   **** #include "queue.h"
   2:Src/queue.c   **** 
   3:Src/queue.c   **** 
   4:Src/queue.c   **** 
   5:Src/queue.c   **** MessageQueue* constructMessage(){
  27              		.loc 1 5 33 view -0
  28              		.cfi_startproc
  29              		@ args = 0, pretend = 0, frame = 0
  30              		@ frame_needed = 0, uses_anonymous_args = 0
  31 0000 08B5     		push	{r3, lr}
  32              	.LCFI0:
  33              		.cfi_def_cfa_offset 8
  34              		.cfi_offset 3, -8
  35              		.cfi_offset 14, -4
   6:Src/queue.c   ****     MessageQueue *queue = (MessageQueue*) malloc(sizeof (MessageQueue)); 
  36              		.loc 1 6 5 view .LVU1
  37              		.loc 1 6 43 is_stmt 0 view .LVU2
  38 0002 4FF48470 		mov	r0, #264
  39 0006 FFF7FEFF 		bl	malloc
  40              	.LVL0:
   7:Src/queue.c   ****     int i;
  41              		.loc 1 7 5 is_stmt 1 view .LVU3
   8:Src/queue.c   ****     queue->front = -1;
  42              		.loc 1 8 5 view .LVU4
  43              		.loc 1 8 18 is_stmt 0 view .LVU5
  44 000a 4FF0FF33 		mov	r3, #-1
  45 000e C0F80031 		str	r3, [r0, #256]
   9:Src/queue.c   ****     queue->rear = 0;
  46              		.loc 1 9 5 is_stmt 1 view .LVU6
  47              		.loc 1 9 17 is_stmt 0 view .LVU7
  48 0012 0023     		movs	r3, #0
  49 0014 C0F80431 		str	r3, [r0, #260]
ARM GAS  C:\Users\Brandon\AppData\Local\Temp\ccaAxuKQ.s 			page 2


  10:Src/queue.c   ****     for (i=0; i<SIZE; i++){
  50              		.loc 1 10 5 is_stmt 1 view .LVU8
  51              	.LVL1:
  52              	.L2:
  53              		.loc 1 10 15 discriminator 1 view .LVU9
  54              		.loc 1 10 5 is_stmt 0 discriminator 1 view .LVU10
  55 0018 FF2B     		cmp	r3, #255
  56 001a 03DC     		bgt	.L5
  11:Src/queue.c   ****         queue->message[i] = 0;    
  57              		.loc 1 11 9 is_stmt 1 discriminator 3 view .LVU11
  58              		.loc 1 11 27 is_stmt 0 discriminator 3 view .LVU12
  59 001c 0022     		movs	r2, #0
  60 001e C254     		strb	r2, [r0, r3]
  10:Src/queue.c   ****     for (i=0; i<SIZE; i++){
  61              		.loc 1 10 23 is_stmt 1 discriminator 3 view .LVU13
  10:Src/queue.c   ****     for (i=0; i<SIZE; i++){
  62              		.loc 1 10 24 is_stmt 0 discriminator 3 view .LVU14
  63 0020 0133     		adds	r3, r3, #1
  64              	.LVL2:
  10:Src/queue.c   ****     for (i=0; i<SIZE; i++){
  65              		.loc 1 10 24 discriminator 3 view .LVU15
  66 0022 F9E7     		b	.L2
  67              	.L5:
  12:Src/queue.c   ****     }
  13:Src/queue.c   ****     return queue;
  14:Src/queue.c   **** }
  68              		.loc 1 14 1 view .LVU16
  69 0024 08BD     		pop	{r3, pc}
  70              		.loc 1 14 1 view .LVU17
  71              		.cfi_endproc
  72              	.LFE0:
  74              		.section	.text.peek,"ax",%progbits
  75              		.align	1
  76              		.global	peek
  77              		.syntax unified
  78              		.thumb
  79              		.thumb_func
  80              		.fpu softvfp
  82              	peek:
  83              	.LVL3:
  84              	.LFB3:
  15:Src/queue.c   **** 
  16:Src/queue.c   **** 
  17:Src/queue.c   **** int enQueue(MessageQueue *queue, uint8_t data){
  18:Src/queue.c   ****     if(isFull(queue)){
  19:Src/queue.c   ****         return FALSE;
  20:Src/queue.c   ****     } else if(isEmpty(queue)){
  21:Src/queue.c   ****         queue->front = queue->rear;
  22:Src/queue.c   ****         queue->message[queue->rear] = data;
  23:Src/queue.c   ****         return TRUE;
  24:Src/queue.c   ****     } else {
  25:Src/queue.c   ****         queue->rear = nextRear(queue);
  26:Src/queue.c   ****         queue->message[queue->rear] = data;
  27:Src/queue.c   ****         return TRUE;
  28:Src/queue.c   ****     }
  29:Src/queue.c   **** }
  30:Src/queue.c   **** 
ARM GAS  C:\Users\Brandon\AppData\Local\Temp\ccaAxuKQ.s 			page 3


  31:Src/queue.c   **** 
  32:Src/queue.c   **** uint8_t deQueue(MessageQueue *queue){
  33:Src/queue.c   ****     if(isEmpty(queue)){
  34:Src/queue.c   ****         return 0;
  35:Src/queue.c   ****     } else if (queue->front==queue->rear){
  36:Src/queue.c   ****         uint8_t temp = queue->message[queue->front];
  37:Src/queue.c   ****         queue->front = -1;
  38:Src/queue.c   ****         return temp;
  39:Src/queue.c   ****     } else {
  40:Src/queue.c   ****         uint8_t temp = queue->message[queue->front];
  41:Src/queue.c   ****         queue->front = nextFront(queue);
  42:Src/queue.c   ****         return temp;
  43:Src/queue.c   ****     }
  44:Src/queue.c   **** }
  45:Src/queue.c   **** 
  46:Src/queue.c   **** uint8_t peek(MessageQueue *queue){
  85              		.loc 1 46 34 is_stmt 1 view -0
  86              		.cfi_startproc
  87              		@ args = 0, pretend = 0, frame = 0
  88              		@ frame_needed = 0, uses_anonymous_args = 0
  89              		@ link register save eliminated.
  47:Src/queue.c   ****     return queue->message[queue->front];
  90              		.loc 1 47 5 view .LVU19
  91              		.loc 1 47 32 is_stmt 0 view .LVU20
  92 0000 D0F80031 		ldr	r3, [r0, #256]
  48:Src/queue.c   **** }
  93              		.loc 1 48 1 view .LVU21
  94 0004 C05C     		ldrb	r0, [r0, r3]	@ zero_extendqisi2
  95              	.LVL4:
  96              		.loc 1 48 1 view .LVU22
  97 0006 7047     		bx	lr
  98              		.cfi_endproc
  99              	.LFE3:
 101              		.section	.text.isEmpty,"ax",%progbits
 102              		.align	1
 103              		.global	isEmpty
 104              		.syntax unified
 105              		.thumb
 106              		.thumb_func
 107              		.fpu softvfp
 109              	isEmpty:
 110              	.LVL5:
 111              	.LFB4:
  49:Src/queue.c   **** 
  50:Src/queue.c   **** int isEmpty(MessageQueue *queue){
 112              		.loc 1 50 33 is_stmt 1 view -0
 113              		.cfi_startproc
 114              		@ args = 0, pretend = 0, frame = 0
 115              		@ frame_needed = 0, uses_anonymous_args = 0
 116              		@ link register save eliminated.
  51:Src/queue.c   ****     if(queue->front == -1){
 117              		.loc 1 51 5 view .LVU24
 118              		.loc 1 51 13 is_stmt 0 view .LVU25
 119 0000 D0F80031 		ldr	r3, [r0, #256]
 120              		.loc 1 51 7 view .LVU26
 121 0004 B3F1FF3F 		cmp	r3, #-1
 122 0008 01D0     		beq	.L9
ARM GAS  C:\Users\Brandon\AppData\Local\Temp\ccaAxuKQ.s 			page 4


  52:Src/queue.c   ****         return TRUE;    
  53:Src/queue.c   ****     }
  54:Src/queue.c   ****     return FALSE;
 123              		.loc 1 54 12 view .LVU27
 124 000a 0020     		movs	r0, #0
 125              	.LVL6:
 126              		.loc 1 54 12 view .LVU28
 127 000c 7047     		bx	lr
 128              	.LVL7:
 129              	.L9:
  52:Src/queue.c   ****         return TRUE;    
 130              		.loc 1 52 16 view .LVU29
 131 000e 0120     		movs	r0, #1
 132              	.LVL8:
  55:Src/queue.c   **** }
 133              		.loc 1 55 1 view .LVU30
 134 0010 7047     		bx	lr
 135              		.cfi_endproc
 136              	.LFE4:
 138              		.section	.text.nextRear,"ax",%progbits
 139              		.align	1
 140              		.global	nextRear
 141              		.syntax unified
 142              		.thumb
 143              		.thumb_func
 144              		.fpu softvfp
 146              	nextRear:
 147              	.LVL9:
 148              	.LFB6:
  56:Src/queue.c   **** 
  57:Src/queue.c   **** int isFull(MessageQueue *queue){
  58:Src/queue.c   ****     if(nextRear(queue)==queue->front){
  59:Src/queue.c   ****         return TRUE;
  60:Src/queue.c   ****     }
  61:Src/queue.c   ****     return FALSE;
  62:Src/queue.c   **** }
  63:Src/queue.c   **** 
  64:Src/queue.c   **** int nextRear(MessageQueue *queue){
 149              		.loc 1 64 34 is_stmt 1 view -0
 150              		.cfi_startproc
 151              		@ args = 0, pretend = 0, frame = 0
 152              		@ frame_needed = 0, uses_anonymous_args = 0
 153              		@ link register save eliminated.
  65:Src/queue.c   ****     return (queue->rear + 1) % SIZE;
 154              		.loc 1 65 5 view .LVU32
 155              		.loc 1 65 18 is_stmt 0 view .LVU33
 156 0000 D0F80401 		ldr	r0, [r0, #260]
 157              	.LVL10:
 158              		.loc 1 65 25 view .LVU34
 159 0004 0130     		adds	r0, r0, #1
 160              		.loc 1 65 30 view .LVU35
 161 0006 4342     		rsbs	r3, r0, #0
 162 0008 C0B2     		uxtb	r0, r0
 163 000a DBB2     		uxtb	r3, r3
  66:Src/queue.c   **** }
 164              		.loc 1 66 1 view .LVU36
 165 000c 58BF     		it	pl
ARM GAS  C:\Users\Brandon\AppData\Local\Temp\ccaAxuKQ.s 			page 5


 166 000e 5842     		rsbpl	r0, r3, #0
 167 0010 7047     		bx	lr
 168              		.cfi_endproc
 169              	.LFE6:
 171              		.section	.text.isFull,"ax",%progbits
 172              		.align	1
 173              		.global	isFull
 174              		.syntax unified
 175              		.thumb
 176              		.thumb_func
 177              		.fpu softvfp
 179              	isFull:
 180              	.LVL11:
 181              	.LFB5:
  57:Src/queue.c   ****     if(nextRear(queue)==queue->front){
 182              		.loc 1 57 32 is_stmt 1 view -0
 183              		.cfi_startproc
 184              		@ args = 0, pretend = 0, frame = 0
 185              		@ frame_needed = 0, uses_anonymous_args = 0
  57:Src/queue.c   ****     if(nextRear(queue)==queue->front){
 186              		.loc 1 57 32 is_stmt 0 view .LVU38
 187 0000 10B5     		push	{r4, lr}
 188              	.LCFI1:
 189              		.cfi_def_cfa_offset 8
 190              		.cfi_offset 4, -8
 191              		.cfi_offset 14, -4
 192 0002 0446     		mov	r4, r0
  58:Src/queue.c   ****         return TRUE;
 193              		.loc 1 58 5 is_stmt 1 view .LVU39
 194              	.LBB2:
  58:Src/queue.c   ****         return TRUE;
 195              		.loc 1 58 8 is_stmt 0 view .LVU40
 196 0004 FFF7FEFF 		bl	nextRear
 197              	.LVL12:
  58:Src/queue.c   ****         return TRUE;
 198              		.loc 1 58 30 view .LVU41
 199 0008 D4F80031 		ldr	r3, [r4, #256]
  58:Src/queue.c   ****         return TRUE;
 200              		.loc 1 58 7 view .LVU42
 201 000c 9842     		cmp	r0, r3
 202 000e 01D0     		beq	.L13
 203              	.LBE2:
  61:Src/queue.c   **** }
 204              		.loc 1 61 12 view .LVU43
 205 0010 0020     		movs	r0, #0
 206              	.L11:
  62:Src/queue.c   **** 
 207              		.loc 1 62 1 view .LVU44
 208 0012 10BD     		pop	{r4, pc}
 209              	.LVL13:
 210              	.L13:
 211              	.LBB3:
  59:Src/queue.c   ****     }
 212              		.loc 1 59 16 view .LVU45
 213 0014 0120     		movs	r0, #1
 214 0016 FCE7     		b	.L11
 215              	.LBE3:
ARM GAS  C:\Users\Brandon\AppData\Local\Temp\ccaAxuKQ.s 			page 6


 216              		.cfi_endproc
 217              	.LFE5:
 219              		.section	.text.enQueue,"ax",%progbits
 220              		.align	1
 221              		.global	enQueue
 222              		.syntax unified
 223              		.thumb
 224              		.thumb_func
 225              		.fpu softvfp
 227              	enQueue:
 228              	.LVL14:
 229              	.LFB1:
  17:Src/queue.c   ****     if(isFull(queue)){
 230              		.loc 1 17 47 is_stmt 1 view -0
 231              		.cfi_startproc
 232              		@ args = 0, pretend = 0, frame = 0
 233              		@ frame_needed = 0, uses_anonymous_args = 0
  17:Src/queue.c   ****     if(isFull(queue)){
 234              		.loc 1 17 47 is_stmt 0 view .LVU47
 235 0000 38B5     		push	{r3, r4, r5, lr}
 236              	.LCFI2:
 237              		.cfi_def_cfa_offset 16
 238              		.cfi_offset 3, -16
 239              		.cfi_offset 4, -12
 240              		.cfi_offset 5, -8
 241              		.cfi_offset 14, -4
 242 0002 0446     		mov	r4, r0
 243 0004 0D46     		mov	r5, r1
  18:Src/queue.c   ****         return FALSE;
 244              		.loc 1 18 5 is_stmt 1 view .LVU48
  18:Src/queue.c   ****         return FALSE;
 245              		.loc 1 18 8 is_stmt 0 view .LVU49
 246 0006 FFF7FEFF 		bl	isFull
 247              	.LVL15:
  18:Src/queue.c   ****         return FALSE;
 248              		.loc 1 18 7 view .LVU50
 249 000a 90B9     		cbnz	r0, .L18
  20:Src/queue.c   ****         queue->front = queue->rear;
 250              		.loc 1 20 12 is_stmt 1 view .LVU51
  20:Src/queue.c   ****         queue->front = queue->rear;
 251              		.loc 1 20 15 is_stmt 0 view .LVU52
 252 000c 2046     		mov	r0, r4
 253 000e FFF7FEFF 		bl	isEmpty
 254              	.LVL16:
  20:Src/queue.c   ****         queue->front = queue->rear;
 255              		.loc 1 20 14 view .LVU53
 256 0012 30B1     		cbz	r0, .L17
  21:Src/queue.c   ****         queue->message[queue->rear] = data;
 257              		.loc 1 21 9 is_stmt 1 view .LVU54
  21:Src/queue.c   ****         queue->message[queue->rear] = data;
 258              		.loc 1 21 29 is_stmt 0 view .LVU55
 259 0014 D4F80431 		ldr	r3, [r4, #260]
  21:Src/queue.c   ****         queue->message[queue->rear] = data;
 260              		.loc 1 21 22 view .LVU56
 261 0018 C4F80031 		str	r3, [r4, #256]
  22:Src/queue.c   ****         return TRUE;
 262              		.loc 1 22 9 is_stmt 1 view .LVU57
ARM GAS  C:\Users\Brandon\AppData\Local\Temp\ccaAxuKQ.s 			page 7


  22:Src/queue.c   ****         return TRUE;
 263              		.loc 1 22 37 is_stmt 0 view .LVU58
 264 001c E554     		strb	r5, [r4, r3]
  23:Src/queue.c   ****     } else {
 265              		.loc 1 23 9 is_stmt 1 view .LVU59
  23:Src/queue.c   ****     } else {
 266              		.loc 1 23 16 is_stmt 0 view .LVU60
 267 001e 0120     		movs	r0, #1
 268 0020 08E0     		b	.L15
 269              	.L17:
 270              	.LBB4:
  25:Src/queue.c   ****         queue->message[queue->rear] = data;
 271              		.loc 1 25 9 is_stmt 1 view .LVU61
  25:Src/queue.c   ****         queue->message[queue->rear] = data;
 272              		.loc 1 25 23 is_stmt 0 view .LVU62
 273 0022 2046     		mov	r0, r4
 274 0024 FFF7FEFF 		bl	nextRear
 275              	.LVL17:
  25:Src/queue.c   ****         queue->message[queue->rear] = data;
 276              		.loc 1 25 21 view .LVU63
 277 0028 C4F80401 		str	r0, [r4, #260]
  26:Src/queue.c   ****         return TRUE;
 278              		.loc 1 26 9 is_stmt 1 view .LVU64
  26:Src/queue.c   ****         return TRUE;
 279              		.loc 1 26 37 is_stmt 0 view .LVU65
 280 002c 2554     		strb	r5, [r4, r0]
  27:Src/queue.c   ****     }
 281              		.loc 1 27 9 is_stmt 1 view .LVU66
  27:Src/queue.c   ****     }
 282              		.loc 1 27 16 is_stmt 0 view .LVU67
 283 002e 0120     		movs	r0, #1
 284 0030 00E0     		b	.L15
 285              	.L18:
  27:Src/queue.c   ****     }
 286              		.loc 1 27 16 view .LVU68
 287              	.LBE4:
  19:Src/queue.c   ****     } else if(isEmpty(queue)){
 288              		.loc 1 19 16 view .LVU69
 289 0032 0020     		movs	r0, #0
 290              	.L15:
  29:Src/queue.c   **** 
 291              		.loc 1 29 1 view .LVU70
 292 0034 38BD     		pop	{r3, r4, r5, pc}
  29:Src/queue.c   **** 
 293              		.loc 1 29 1 view .LVU71
 294              		.cfi_endproc
 295              	.LFE1:
 297              		.section	.text.nextFront,"ax",%progbits
 298              		.align	1
 299              		.global	nextFront
 300              		.syntax unified
 301              		.thumb
 302              		.thumb_func
 303              		.fpu softvfp
 305              	nextFront:
 306              	.LVL18:
 307              	.LFB7:
ARM GAS  C:\Users\Brandon\AppData\Local\Temp\ccaAxuKQ.s 			page 8


  67:Src/queue.c   **** 
  68:Src/queue.c   **** int nextFront(MessageQueue *queue){
 308              		.loc 1 68 35 is_stmt 1 view -0
 309              		.cfi_startproc
 310              		@ args = 0, pretend = 0, frame = 0
 311              		@ frame_needed = 0, uses_anonymous_args = 0
 312              		@ link register save eliminated.
  69:Src/queue.c   ****     return (queue->front + 1) % SIZE;
 313              		.loc 1 69 5 view .LVU73
 314              		.loc 1 69 18 is_stmt 0 view .LVU74
 315 0000 D0F80001 		ldr	r0, [r0, #256]
 316              	.LVL19:
 317              		.loc 1 69 26 view .LVU75
 318 0004 0130     		adds	r0, r0, #1
 319              		.loc 1 69 31 view .LVU76
 320 0006 4342     		rsbs	r3, r0, #0
 321 0008 C0B2     		uxtb	r0, r0
 322 000a DBB2     		uxtb	r3, r3
  70:Src/queue.c   **** }
 323              		.loc 1 70 1 view .LVU77
 324 000c 58BF     		it	pl
 325 000e 5842     		rsbpl	r0, r3, #0
 326 0010 7047     		bx	lr
 327              		.cfi_endproc
 328              	.LFE7:
 330              		.section	.text.deQueue,"ax",%progbits
 331              		.align	1
 332              		.global	deQueue
 333              		.syntax unified
 334              		.thumb
 335              		.thumb_func
 336              		.fpu softvfp
 338              	deQueue:
 339              	.LVL20:
 340              	.LFB2:
  32:Src/queue.c   ****     if(isEmpty(queue)){
 341              		.loc 1 32 37 is_stmt 1 view -0
 342              		.cfi_startproc
 343              		@ args = 0, pretend = 0, frame = 0
 344              		@ frame_needed = 0, uses_anonymous_args = 0
  32:Src/queue.c   ****     if(isEmpty(queue)){
 345              		.loc 1 32 37 is_stmt 0 view .LVU79
 346 0000 38B5     		push	{r3, r4, r5, lr}
 347              	.LCFI3:
 348              		.cfi_def_cfa_offset 16
 349              		.cfi_offset 3, -16
 350              		.cfi_offset 4, -12
 351              		.cfi_offset 5, -8
 352              		.cfi_offset 14, -4
 353 0002 0446     		mov	r4, r0
  33:Src/queue.c   ****         return 0;
 354              		.loc 1 33 5 is_stmt 1 view .LVU80
  33:Src/queue.c   ****         return 0;
 355              		.loc 1 33 8 is_stmt 0 view .LVU81
 356 0004 FFF7FEFF 		bl	isEmpty
 357              	.LVL21:
  33:Src/queue.c   ****         return 0;
ARM GAS  C:\Users\Brandon\AppData\Local\Temp\ccaAxuKQ.s 			page 9


 358              		.loc 1 33 7 view .LVU82
 359 0008 98B9     		cbnz	r0, .L24
  35:Src/queue.c   ****         uint8_t temp = queue->message[queue->front];
 360              		.loc 1 35 12 is_stmt 1 view .LVU83
  35:Src/queue.c   ****         uint8_t temp = queue->message[queue->front];
 361              		.loc 1 35 21 is_stmt 0 view .LVU84
 362 000a D4F80031 		ldr	r3, [r4, #256]
  35:Src/queue.c   ****         uint8_t temp = queue->message[queue->front];
 363              		.loc 1 35 35 view .LVU85
 364 000e D4F80421 		ldr	r2, [r4, #260]
  35:Src/queue.c   ****         uint8_t temp = queue->message[queue->front];
 365              		.loc 1 35 15 view .LVU86
 366 0012 9342     		cmp	r3, r2
 367 0014 07D0     		beq	.L26
 368              	.LBB5:
  40:Src/queue.c   ****         queue->front = nextFront(queue);
 369              		.loc 1 40 9 is_stmt 1 view .LVU87
  40:Src/queue.c   ****         queue->front = nextFront(queue);
 370              		.loc 1 40 17 is_stmt 0 view .LVU88
 371 0016 E55C     		ldrb	r5, [r4, r3]	@ zero_extendqisi2
 372              	.LVL22:
  41:Src/queue.c   ****         return temp;
 373              		.loc 1 41 9 is_stmt 1 view .LVU89
  41:Src/queue.c   ****         return temp;
 374              		.loc 1 41 24 is_stmt 0 view .LVU90
 375 0018 2046     		mov	r0, r4
 376 001a FFF7FEFF 		bl	nextFront
 377              	.LVL23:
  41:Src/queue.c   ****         return temp;
 378              		.loc 1 41 22 view .LVU91
 379 001e C4F80001 		str	r0, [r4, #256]
  42:Src/queue.c   ****     }
 380              		.loc 1 42 9 is_stmt 1 view .LVU92
 381              	.LVL24:
 382              	.L22:
  42:Src/queue.c   ****     }
 383              		.loc 1 42 9 is_stmt 0 view .LVU93
 384              	.LBE5:
  44:Src/queue.c   **** 
 385              		.loc 1 44 1 view .LVU94
 386 0022 2846     		mov	r0, r5
 387 0024 38BD     		pop	{r3, r4, r5, pc}
 388              	.LVL25:
 389              	.L26:
 390              	.LBB6:
  36:Src/queue.c   ****         queue->front = -1;
 391              		.loc 1 36 9 is_stmt 1 view .LVU95
  36:Src/queue.c   ****         queue->front = -1;
 392              		.loc 1 36 17 is_stmt 0 view .LVU96
 393 0026 E55C     		ldrb	r5, [r4, r3]	@ zero_extendqisi2
 394              	.LVL26:
  37:Src/queue.c   ****         return temp;
 395              		.loc 1 37 9 is_stmt 1 view .LVU97
  37:Src/queue.c   ****         return temp;
 396              		.loc 1 37 22 is_stmt 0 view .LVU98
 397 0028 4FF0FF33 		mov	r3, #-1
 398 002c C4F80031 		str	r3, [r4, #256]
ARM GAS  C:\Users\Brandon\AppData\Local\Temp\ccaAxuKQ.s 			page 10


  38:Src/queue.c   ****     } else {
 399              		.loc 1 38 9 is_stmt 1 view .LVU99
  38:Src/queue.c   ****     } else {
 400              		.loc 1 38 16 is_stmt 0 view .LVU100
 401 0030 F7E7     		b	.L22
 402              	.LVL27:
 403              	.L24:
  38:Src/queue.c   ****     } else {
 404              		.loc 1 38 16 view .LVU101
 405              	.LBE6:
  34:Src/queue.c   ****     } else if (queue->front==queue->rear){
 406              		.loc 1 34 16 view .LVU102
 407 0032 0025     		movs	r5, #0
 408 0034 F5E7     		b	.L22
 409              		.cfi_endproc
 410              	.LFE2:
 412              		.text
 413              	.Letext0:
 414              		.file 2 "c:\\program files (x86)\\gnu tools arm embedded\\9 2019-q4-major\\arm-none-eabi\\include\
 415              		.file 3 "c:\\program files (x86)\\gnu tools arm embedded\\9 2019-q4-major\\arm-none-eabi\\include\
 416              		.file 4 "c:\\program files (x86)\\gnu tools arm embedded\\9 2019-q4-major\\arm-none-eabi\\include\
 417              		.file 5 "c:\\program files (x86)\\gnu tools arm embedded\\9 2019-q4-major\\arm-none-eabi\\include\
 418              		.file 6 "c:\\program files (x86)\\gnu tools arm embedded\\9 2019-q4-major\\lib\\gcc\\arm-none-eabi
 419              		.file 7 "c:\\program files (x86)\\gnu tools arm embedded\\9 2019-q4-major\\arm-none-eabi\\include\
 420              		.file 8 "c:\\program files (x86)\\gnu tools arm embedded\\9 2019-q4-major\\arm-none-eabi\\include\
 421              		.file 9 "Inc/queue.h"
ARM GAS  C:\Users\Brandon\AppData\Local\Temp\ccaAxuKQ.s 			page 11


DEFINED SYMBOLS
                            *ABS*:00000000 queue.c
C:\Users\Brandon\AppData\Local\Temp\ccaAxuKQ.s:16     .text.constructMessage:00000000 $t
C:\Users\Brandon\AppData\Local\Temp\ccaAxuKQ.s:24     .text.constructMessage:00000000 constructMessage
C:\Users\Brandon\AppData\Local\Temp\ccaAxuKQ.s:75     .text.peek:00000000 $t
C:\Users\Brandon\AppData\Local\Temp\ccaAxuKQ.s:82     .text.peek:00000000 peek
C:\Users\Brandon\AppData\Local\Temp\ccaAxuKQ.s:102    .text.isEmpty:00000000 $t
C:\Users\Brandon\AppData\Local\Temp\ccaAxuKQ.s:109    .text.isEmpty:00000000 isEmpty
C:\Users\Brandon\AppData\Local\Temp\ccaAxuKQ.s:139    .text.nextRear:00000000 $t
C:\Users\Brandon\AppData\Local\Temp\ccaAxuKQ.s:146    .text.nextRear:00000000 nextRear
C:\Users\Brandon\AppData\Local\Temp\ccaAxuKQ.s:172    .text.isFull:00000000 $t
C:\Users\Brandon\AppData\Local\Temp\ccaAxuKQ.s:179    .text.isFull:00000000 isFull
C:\Users\Brandon\AppData\Local\Temp\ccaAxuKQ.s:220    .text.enQueue:00000000 $t
C:\Users\Brandon\AppData\Local\Temp\ccaAxuKQ.s:227    .text.enQueue:00000000 enQueue
C:\Users\Brandon\AppData\Local\Temp\ccaAxuKQ.s:298    .text.nextFront:00000000 $t
C:\Users\Brandon\AppData\Local\Temp\ccaAxuKQ.s:305    .text.nextFront:00000000 nextFront
C:\Users\Brandon\AppData\Local\Temp\ccaAxuKQ.s:331    .text.deQueue:00000000 $t
C:\Users\Brandon\AppData\Local\Temp\ccaAxuKQ.s:338    .text.deQueue:00000000 deQueue

UNDEFINED SYMBOLS
malloc
