ARM GAS  C:\Users\Brandon\AppData\Local\Temp\ccOu4meC.s 			page 1


   1              		.cpu cortex-m3
   2              		.eabi_attribute 20, 1
   3              		.eabi_attribute 21, 1
   4              		.eabi_attribute 23, 3
   5              		.eabi_attribute 24, 1
   6              		.eabi_attribute 25, 1
   7              		.eabi_attribute 26, 1
   8              		.eabi_attribute 30, 1
   9              		.eabi_attribute 34, 1
  10              		.eabi_attribute 18, 4
  11              		.file	"stepper.c"
  12              		.text
  13              	.Ltext0:
  14              		.cfi_sections	.debug_frame
  15              		.section	.text.DRV8825_setMode,"ax",%progbits
  16              		.align	1
  17              		.global	DRV8825_setMode
  18              		.arch armv7-m
  19              		.syntax unified
  20              		.thumb
  21              		.thumb_func
  22              		.fpu softvfp
  24              	DRV8825_setMode:
  25              	.LFB528:
  26              		.file 1 "Src/stepper.c"
   1:Src/stepper.c **** #include "stepper.h"
   2:Src/stepper.c **** #include "main.h"
   3:Src/stepper.c **** 
   4:Src/stepper.c **** Motor_t m;
   5:Src/stepper.c **** 
   6:Src/stepper.c **** void DRV8825_initStepper()
   7:Src/stepper.c **** {
   8:Src/stepper.c ****     m.delay = 60;
   9:Src/stepper.c ****     m.stepsPerCycle = 8;
  10:Src/stepper.c ****     DRV8825_setMode();
  11:Src/stepper.c **** 	DRV8825_enableStepper();
  12:Src/stepper.c **** 
  13:Src/stepper.c **** }
  14:Src/stepper.c **** 
  15:Src/stepper.c **** /*
  16:Src/stepper.c ****       M0  |  M1  |  M2  |   Resolution
  17:Src/stepper.c ****       0   |  0   |  0   |   Full Step
  18:Src/stepper.c ****       1   |  0   |  0   |   Half Step
  19:Src/stepper.c ****       0   |  1   |  0   |   1/4 Step
  20:Src/stepper.c ****       1   |  1   |  0   |   1/8 Step
  21:Src/stepper.c ****       0   |  0   |  1   |   1/16 Step
  22:Src/stepper.c ****       1   |  0   |  1   |   1/32 Step
  23:Src/stepper.c ****  */
  24:Src/stepper.c **** 
  25:Src/stepper.c **** void DRV8825_setMode()
  26:Src/stepper.c **** {
  27              		.loc 1 26 1 view -0
  28              		.cfi_startproc
  29              		@ args = 0, pretend = 0, frame = 0
  30              		@ frame_needed = 0, uses_anonymous_args = 0
  31 0000 10B5     		push	{r4, lr}
  32              	.LCFI0:
ARM GAS  C:\Users\Brandon\AppData\Local\Temp\ccOu4meC.s 			page 2


  33              		.cfi_def_cfa_offset 8
  34              		.cfi_offset 4, -8
  35              		.cfi_offset 14, -4
  27:Src/stepper.c ****     // 1/16th step
  28:Src/stepper.c ****     HAL_GPIO_WritePin(M0_GPIO_Port, M0_Pin, 0);
  36              		.loc 1 28 5 view .LVU1
  37 0002 0A4C     		ldr	r4, .L3
  38 0004 0022     		movs	r2, #0
  39 0006 4FF40041 		mov	r1, #32768
  40 000a 2046     		mov	r0, r4
  41 000c FFF7FEFF 		bl	HAL_GPIO_WritePin
  42              	.LVL0:
  29:Src/stepper.c **** 	HAL_GPIO_WritePin(M1_GPIO_Port, M1_Pin, 0);
  43              		.loc 1 29 2 view .LVU2
  44 0010 0022     		movs	r2, #0
  45 0012 4FF48041 		mov	r1, #16384
  46 0016 2046     		mov	r0, r4
  47 0018 FFF7FEFF 		bl	HAL_GPIO_WritePin
  48              	.LVL1:
  30:Src/stepper.c **** 	HAL_GPIO_WritePin(M2_GPIO_Port, M2_Pin, 1);
  49              		.loc 1 30 2 view .LVU3
  50 001c 0122     		movs	r2, #1
  51 001e 4FF40051 		mov	r1, #8192
  52 0022 2046     		mov	r0, r4
  53 0024 FFF7FEFF 		bl	HAL_GPIO_WritePin
  54              	.LVL2:
  31:Src/stepper.c **** }
  55              		.loc 1 31 1 is_stmt 0 view .LVU4
  56 0028 10BD     		pop	{r4, pc}
  57              	.L4:
  58 002a 00BF     		.align	2
  59              	.L3:
  60 002c 000C0140 		.word	1073810432
  61              		.cfi_endproc
  62              	.LFE528:
  64              		.section	.text.DRV8825_findDirection,"ax",%progbits
  65              		.align	1
  66              		.global	DRV8825_findDirection
  67              		.syntax unified
  68              		.thumb
  69              		.thumb_func
  70              		.fpu softvfp
  72              	DRV8825_findDirection:
  73              	.LFB529:
  32:Src/stepper.c **** 
  33:Src/stepper.c **** 
  34:Src/stepper.c **** void DRV8825_findDirection()
  35:Src/stepper.c **** {
  74              		.loc 1 35 1 is_stmt 1 view -0
  75              		.cfi_startproc
  76              		@ args = 0, pretend = 0, frame = 0
  77              		@ frame_needed = 0, uses_anonymous_args = 0
  78 0000 08B5     		push	{r3, lr}
  79              	.LCFI1:
  80              		.cfi_def_cfa_offset 8
  81              		.cfi_offset 3, -8
  82              		.cfi_offset 14, -4
ARM GAS  C:\Users\Brandon\AppData\Local\Temp\ccOu4meC.s 			page 3


  36:Src/stepper.c ****     if(m.target_angle < m.current_angle) {
  83              		.loc 1 36 5 view .LVU6
  84              		.loc 1 36 9 is_stmt 0 view .LVU7
  85 0002 094B     		ldr	r3, .L9
  86 0004 1A88     		ldrh	r2, [r3]
  87              		.loc 1 36 26 view .LVU8
  88 0006 5B88     		ldrh	r3, [r3, #2]
  89              		.loc 1 36 7 view .LVU9
  90 0008 9A42     		cmp	r2, r3
  91 000a 06D2     		bcs	.L6
  37:Src/stepper.c ****         HAL_GPIO_WritePin(STEP_DIR_GPIO_Port, STEP_DIR_Pin, 0);
  92              		.loc 1 37 9 is_stmt 1 view .LVU10
  93 000c 0022     		movs	r2, #0
  94 000e 4FF48061 		mov	r1, #1024
  95 0012 0648     		ldr	r0, .L9+4
  96 0014 FFF7FEFF 		bl	HAL_GPIO_WritePin
  97              	.LVL3:
  98              	.L5:
  38:Src/stepper.c ****     } 
  39:Src/stepper.c ****     else { 
  40:Src/stepper.c ****         HAL_GPIO_WritePin(STEP_DIR_GPIO_Port, STEP_DIR_Pin, 1);
  41:Src/stepper.c ****     }
  42:Src/stepper.c **** }
  99              		.loc 1 42 1 is_stmt 0 view .LVU11
 100 0018 08BD     		pop	{r3, pc}
 101              	.L6:
  40:Src/stepper.c ****     }
 102              		.loc 1 40 9 is_stmt 1 view .LVU12
 103 001a 0122     		movs	r2, #1
 104 001c 4FF48061 		mov	r1, #1024
 105 0020 0248     		ldr	r0, .L9+4
 106 0022 FFF7FEFF 		bl	HAL_GPIO_WritePin
 107              	.LVL4:
 108              		.loc 1 42 1 is_stmt 0 view .LVU13
 109 0026 F7E7     		b	.L5
 110              	.L10:
 111              		.align	2
 112              	.L9:
 113 0028 00000000 		.word	m
 114 002c 00080140 		.word	1073809408
 115              		.cfi_endproc
 116              	.LFE529:
 118              		.section	.text.DRV8825_enableStepper,"ax",%progbits
 119              		.align	1
 120              		.global	DRV8825_enableStepper
 121              		.syntax unified
 122              		.thumb
 123              		.thumb_func
 124              		.fpu softvfp
 126              	DRV8825_enableStepper:
 127              	.LFB530:
  43:Src/stepper.c **** 
  44:Src/stepper.c **** void DRV8825_enableStepper()
  45:Src/stepper.c **** {
 128              		.loc 1 45 1 is_stmt 1 view -0
 129              		.cfi_startproc
 130              		@ args = 0, pretend = 0, frame = 0
ARM GAS  C:\Users\Brandon\AppData\Local\Temp\ccOu4meC.s 			page 4


 131              		@ frame_needed = 0, uses_anonymous_args = 0
 132 0000 08B5     		push	{r3, lr}
 133              	.LCFI2:
 134              		.cfi_def_cfa_offset 8
 135              		.cfi_offset 3, -8
 136              		.cfi_offset 14, -4
  46:Src/stepper.c ****     HAL_GPIO_WritePin(ENABLE_GPIO_Port, ENABLE_Pin, 0);
 137              		.loc 1 46 5 view .LVU15
 138 0002 0022     		movs	r2, #0
 139 0004 4FF40071 		mov	r1, #512
 140 0008 0148     		ldr	r0, .L13
 141 000a FFF7FEFF 		bl	HAL_GPIO_WritePin
 142              	.LVL5:
  47:Src/stepper.c **** }
 143              		.loc 1 47 1 is_stmt 0 view .LVU16
 144 000e 08BD     		pop	{r3, pc}
 145              	.L14:
 146              		.align	2
 147              	.L13:
 148 0010 00080140 		.word	1073809408
 149              		.cfi_endproc
 150              	.LFE530:
 152              		.section	.text.DRV8825_initStepper,"ax",%progbits
 153              		.align	1
 154              		.global	DRV8825_initStepper
 155              		.syntax unified
 156              		.thumb
 157              		.thumb_func
 158              		.fpu softvfp
 160              	DRV8825_initStepper:
 161              	.LFB527:
   7:Src/stepper.c ****     m.delay = 60;
 162              		.loc 1 7 1 is_stmt 1 view -0
 163              		.cfi_startproc
 164              		@ args = 0, pretend = 0, frame = 0
 165              		@ frame_needed = 0, uses_anonymous_args = 0
 166 0000 08B5     		push	{r3, lr}
 167              	.LCFI3:
 168              		.cfi_def_cfa_offset 8
 169              		.cfi_offset 3, -8
 170              		.cfi_offset 14, -4
   8:Src/stepper.c ****     m.stepsPerCycle = 8;
 171              		.loc 1 8 5 view .LVU18
   8:Src/stepper.c ****     m.stepsPerCycle = 8;
 172              		.loc 1 8 13 is_stmt 0 view .LVU19
 173 0002 054B     		ldr	r3, .L17
 174 0004 3C22     		movs	r2, #60
 175 0006 9A80     		strh	r2, [r3, #4]	@ movhi
   9:Src/stepper.c ****     DRV8825_setMode();
 176              		.loc 1 9 5 is_stmt 1 view .LVU20
   9:Src/stepper.c ****     DRV8825_setMode();
 177              		.loc 1 9 21 is_stmt 0 view .LVU21
 178 0008 0822     		movs	r2, #8
 179 000a 9A71     		strb	r2, [r3, #6]
  10:Src/stepper.c **** 	DRV8825_enableStepper();
 180              		.loc 1 10 5 is_stmt 1 view .LVU22
 181 000c FFF7FEFF 		bl	DRV8825_setMode
ARM GAS  C:\Users\Brandon\AppData\Local\Temp\ccOu4meC.s 			page 5


 182              	.LVL6:
  11:Src/stepper.c **** 
 183              		.loc 1 11 2 view .LVU23
 184 0010 FFF7FEFF 		bl	DRV8825_enableStepper
 185              	.LVL7:
  13:Src/stepper.c **** 
 186              		.loc 1 13 1 is_stmt 0 view .LVU24
 187 0014 08BD     		pop	{r3, pc}
 188              	.L18:
 189 0016 00BF     		.align	2
 190              	.L17:
 191 0018 00000000 		.word	m
 192              		.cfi_endproc
 193              	.LFE527:
 195              		.section	.text.DRV8825_disableStepper,"ax",%progbits
 196              		.align	1
 197              		.global	DRV8825_disableStepper
 198              		.syntax unified
 199              		.thumb
 200              		.thumb_func
 201              		.fpu softvfp
 203              	DRV8825_disableStepper:
 204              	.LFB531:
  48:Src/stepper.c **** 
  49:Src/stepper.c **** void DRV8825_disableStepper()
  50:Src/stepper.c **** {
 205              		.loc 1 50 1 is_stmt 1 view -0
 206              		.cfi_startproc
 207              		@ args = 0, pretend = 0, frame = 0
 208              		@ frame_needed = 0, uses_anonymous_args = 0
 209 0000 08B5     		push	{r3, lr}
 210              	.LCFI4:
 211              		.cfi_def_cfa_offset 8
 212              		.cfi_offset 3, -8
 213              		.cfi_offset 14, -4
  51:Src/stepper.c ****     HAL_GPIO_WritePin(ENABLE_GPIO_Port, ENABLE_Pin, 1);
 214              		.loc 1 51 5 view .LVU26
 215 0002 0122     		movs	r2, #1
 216 0004 4FF40071 		mov	r1, #512
 217 0008 0148     		ldr	r0, .L21
 218 000a FFF7FEFF 		bl	HAL_GPIO_WritePin
 219              	.LVL8:
  52:Src/stepper.c **** }
 220              		.loc 1 52 1 is_stmt 0 view .LVU27
 221 000e 08BD     		pop	{r3, pc}
 222              	.L22:
 223              		.align	2
 224              	.L21:
 225 0010 00080140 		.word	1073809408
 226              		.cfi_endproc
 227              	.LFE531:
 229              		.section	.text.DRV8825_step,"ax",%progbits
 230              		.align	1
 231              		.global	DRV8825_step
 232              		.syntax unified
 233              		.thumb
 234              		.thumb_func
ARM GAS  C:\Users\Brandon\AppData\Local\Temp\ccOu4meC.s 			page 6


 235              		.fpu softvfp
 237              	DRV8825_step:
 238              	.LFB533:
  53:Src/stepper.c **** 
  54:Src/stepper.c **** uint8_t DRV8825_goToTarget()
  55:Src/stepper.c **** {
  56:Src/stepper.c ****     int i;
  57:Src/stepper.c ****     float error = abs(m.target_angle-m.current_angle);
  58:Src/stepper.c ****     DRV8825_findDirection();
  59:Src/stepper.c ****     if(error > 20){
  60:Src/stepper.c ****         for(i=0; i < m.stepsPerCycle; i++){
  61:Src/stepper.c ****             DRV8825_step();
  62:Src/stepper.c ****         }
  63:Src/stepper.c **** 		return 1;
  64:Src/stepper.c ****     } else {
  65:Src/stepper.c **** 		return 0;
  66:Src/stepper.c **** 	}
  67:Src/stepper.c **** 	
  68:Src/stepper.c **** }
  69:Src/stepper.c **** 
  70:Src/stepper.c **** void DRV8825_step()
  71:Src/stepper.c **** {
 239              		.loc 1 71 1 is_stmt 1 view -0
 240              		.cfi_startproc
 241              		@ args = 0, pretend = 0, frame = 0
 242              		@ frame_needed = 0, uses_anonymous_args = 0
 243 0000 38B5     		push	{r3, r4, r5, lr}
 244              	.LCFI5:
 245              		.cfi_def_cfa_offset 16
 246              		.cfi_offset 3, -16
 247              		.cfi_offset 4, -12
 248              		.cfi_offset 5, -8
 249              		.cfi_offset 14, -4
  72:Src/stepper.c ****     HAL_GPIO_WritePin(STEP_GPIO_Port, STEP_Pin, 1);
 250              		.loc 1 72 5 view .LVU29
 251 0002 0A4D     		ldr	r5, .L25
 252 0004 0122     		movs	r2, #1
 253 0006 4FF48071 		mov	r1, #256
 254 000a 2846     		mov	r0, r5
 255 000c FFF7FEFF 		bl	HAL_GPIO_WritePin
 256              	.LVL9:
  73:Src/stepper.c ****     DWT_Delay(m.delay);
 257              		.loc 1 73 5 view .LVU30
 258              		.loc 1 73 16 is_stmt 0 view .LVU31
 259 0010 074C     		ldr	r4, .L25+4
 260              		.loc 1 73 5 view .LVU32
 261 0012 A088     		ldrh	r0, [r4, #4]
 262 0014 FFF7FEFF 		bl	DWT_Delay
 263              	.LVL10:
  74:Src/stepper.c ****     HAL_GPIO_WritePin(STEP_GPIO_Port, STEP_Pin, 0);
 264              		.loc 1 74 5 is_stmt 1 view .LVU33
 265 0018 0022     		movs	r2, #0
 266 001a 4FF48071 		mov	r1, #256
 267 001e 2846     		mov	r0, r5
 268 0020 FFF7FEFF 		bl	HAL_GPIO_WritePin
 269              	.LVL11:
  75:Src/stepper.c ****     DWT_Delay(m.delay);
ARM GAS  C:\Users\Brandon\AppData\Local\Temp\ccOu4meC.s 			page 7


 270              		.loc 1 75 5 view .LVU34
 271 0024 A088     		ldrh	r0, [r4, #4]
 272 0026 FFF7FEFF 		bl	DWT_Delay
 273              	.LVL12:
  76:Src/stepper.c **** }
 274              		.loc 1 76 1 is_stmt 0 view .LVU35
 275 002a 38BD     		pop	{r3, r4, r5, pc}
 276              	.L26:
 277              		.align	2
 278              	.L25:
 279 002c 00080140 		.word	1073809408
 280 0030 00000000 		.word	m
 281              		.cfi_endproc
 282              	.LFE533:
 284              		.global	__aeabi_i2f
 285              		.global	__aeabi_fcmpgt
 286              		.section	.text.DRV8825_goToTarget,"ax",%progbits
 287              		.align	1
 288              		.global	DRV8825_goToTarget
 289              		.syntax unified
 290              		.thumb
 291              		.thumb_func
 292              		.fpu softvfp
 294              	DRV8825_goToTarget:
 295              	.LFB532:
  55:Src/stepper.c ****     int i;
 296              		.loc 1 55 1 is_stmt 1 view -0
 297              		.cfi_startproc
 298              		@ args = 0, pretend = 0, frame = 0
 299              		@ frame_needed = 0, uses_anonymous_args = 0
 300 0000 10B5     		push	{r4, lr}
 301              	.LCFI6:
 302              		.cfi_def_cfa_offset 8
 303              		.cfi_offset 4, -8
 304              		.cfi_offset 14, -4
  56:Src/stepper.c ****     float error = abs(m.target_angle-m.current_angle);
 305              		.loc 1 56 5 view .LVU37
  57:Src/stepper.c ****     DRV8825_findDirection();
 306              		.loc 1 57 5 view .LVU38
  57:Src/stepper.c ****     DRV8825_findDirection();
 307              		.loc 1 57 24 is_stmt 0 view .LVU39
 308 0002 0E4B     		ldr	r3, .L34
 309 0004 1888     		ldrh	r0, [r3]
  57:Src/stepper.c ****     DRV8825_findDirection();
 310              		.loc 1 57 39 view .LVU40
 311 0006 5B88     		ldrh	r3, [r3, #2]
  57:Src/stepper.c ****     DRV8825_findDirection();
 312              		.loc 1 57 37 view .LVU41
 313 0008 C01A     		subs	r0, r0, r3
  57:Src/stepper.c ****     DRV8825_findDirection();
 314              		.loc 1 57 11 view .LVU42
 315 000a 0028     		cmp	r0, #0
 316 000c B8BF     		it	lt
 317 000e 4042     		rsblt	r0, r0, #0
 318 0010 FFF7FEFF 		bl	__aeabi_i2f
 319              	.LVL13:
 320 0014 0446     		mov	r4, r0
ARM GAS  C:\Users\Brandon\AppData\Local\Temp\ccOu4meC.s 			page 8


 321              	.LVL14:
  58:Src/stepper.c ****     if(error > 20){
 322              		.loc 1 58 5 is_stmt 1 view .LVU43
 323 0016 FFF7FEFF 		bl	DRV8825_findDirection
 324              	.LVL15:
  59:Src/stepper.c ****         for(i=0; i < m.stepsPerCycle; i++){
 325              		.loc 1 59 5 view .LVU44
  59:Src/stepper.c ****         for(i=0; i < m.stepsPerCycle; i++){
 326              		.loc 1 59 7 is_stmt 0 view .LVU45
 327 001a 0949     		ldr	r1, .L34+4
 328 001c 2046     		mov	r0, r4
 329 001e FFF7FEFF 		bl	__aeabi_fcmpgt
 330              	.LVL16:
 331 0022 00B9     		cbnz	r0, .L31
 332              	.LVL17:
 333              	.L29:
  68:Src/stepper.c **** 
 334              		.loc 1 68 1 view .LVU46
 335 0024 10BD     		pop	{r4, pc}
 336              	.LVL18:
 337              	.L31:
  60:Src/stepper.c ****             DRV8825_step();
 338              		.loc 1 60 14 view .LVU47
 339 0026 0024     		movs	r4, #0
 340              	.LVL19:
 341              	.L28:
  60:Src/stepper.c ****             DRV8825_step();
 342              		.loc 1 60 18 is_stmt 1 discriminator 1 view .LVU48
  60:Src/stepper.c ****             DRV8825_step();
 343              		.loc 1 60 23 is_stmt 0 discriminator 1 view .LVU49
 344 0028 044B     		ldr	r3, .L34
 345 002a 9B79     		ldrb	r3, [r3, #6]	@ zero_extendqisi2
  60:Src/stepper.c ****             DRV8825_step();
 346              		.loc 1 60 9 discriminator 1 view .LVU50
 347 002c A342     		cmp	r3, r4
 348 002e 03DD     		ble	.L33
  61:Src/stepper.c ****         }
 349              		.loc 1 61 13 is_stmt 1 discriminator 3 view .LVU51
 350 0030 FFF7FEFF 		bl	DRV8825_step
 351              	.LVL20:
  60:Src/stepper.c ****             DRV8825_step();
 352              		.loc 1 60 39 discriminator 3 view .LVU52
  60:Src/stepper.c ****             DRV8825_step();
 353              		.loc 1 60 40 is_stmt 0 discriminator 3 view .LVU53
 354 0034 0134     		adds	r4, r4, #1
 355              	.LVL21:
  60:Src/stepper.c ****             DRV8825_step();
 356              		.loc 1 60 40 discriminator 3 view .LVU54
 357 0036 F7E7     		b	.L28
 358              	.L33:
  63:Src/stepper.c ****     } else {
 359              		.loc 1 63 10 view .LVU55
 360 0038 0120     		movs	r0, #1
 361 003a F3E7     		b	.L29
 362              	.L35:
 363              		.align	2
 364              	.L34:
ARM GAS  C:\Users\Brandon\AppData\Local\Temp\ccOu4meC.s 			page 9


 365 003c 00000000 		.word	m
 366 0040 0000A041 		.word	1101004800
 367              		.cfi_endproc
 368              	.LFE532:
 370              		.section	.text.DRV8825_setCurrentAngle,"ax",%progbits
 371              		.align	1
 372              		.global	DRV8825_setCurrentAngle
 373              		.syntax unified
 374              		.thumb
 375              		.thumb_func
 376              		.fpu softvfp
 378              	DRV8825_setCurrentAngle:
 379              	.LVL22:
 380              	.LFB534:
  77:Src/stepper.c **** 
  78:Src/stepper.c **** void DRV8825_setCurrentAngle(uint16_t current_angle)
  79:Src/stepper.c **** {
 381              		.loc 1 79 1 is_stmt 1 view -0
 382              		.cfi_startproc
 383              		@ args = 0, pretend = 0, frame = 0
 384              		@ frame_needed = 0, uses_anonymous_args = 0
 385              		@ link register save eliminated.
  80:Src/stepper.c ****     m.current_angle = current_angle;
 386              		.loc 1 80 5 view .LVU57
 387              		.loc 1 80 21 is_stmt 0 view .LVU58
 388 0000 014B     		ldr	r3, .L37
 389 0002 5880     		strh	r0, [r3, #2]	@ movhi
  81:Src/stepper.c **** }
 390              		.loc 1 81 1 view .LVU59
 391 0004 7047     		bx	lr
 392              	.L38:
 393 0006 00BF     		.align	2
 394              	.L37:
 395 0008 00000000 		.word	m
 396              		.cfi_endproc
 397              	.LFE534:
 399              		.section	.text.DRV8825_setTarget,"ax",%progbits
 400              		.align	1
 401              		.global	DRV8825_setTarget
 402              		.syntax unified
 403              		.thumb
 404              		.thumb_func
 405              		.fpu softvfp
 407              	DRV8825_setTarget:
 408              	.LVL23:
 409              	.LFB535:
  82:Src/stepper.c **** 
  83:Src/stepper.c **** void DRV8825_setTarget(uint16_t new_angle)
  84:Src/stepper.c **** {
 410              		.loc 1 84 1 is_stmt 1 view -0
 411              		.cfi_startproc
 412              		@ args = 0, pretend = 0, frame = 0
 413              		@ frame_needed = 0, uses_anonymous_args = 0
 414              		@ link register save eliminated.
  85:Src/stepper.c ****     m.target_angle = new_angle;
 415              		.loc 1 85 5 view .LVU61
 416              		.loc 1 85 20 is_stmt 0 view .LVU62
ARM GAS  C:\Users\Brandon\AppData\Local\Temp\ccOu4meC.s 			page 10


 417 0000 014B     		ldr	r3, .L40
 418 0002 1880     		strh	r0, [r3]	@ movhi
  86:Src/stepper.c **** }...
 419              		.loc 1 86 1 view .LVU63
 420 0004 7047     		bx	lr
 421              	.L41:
 422 0006 00BF     		.align	2
 423              	.L40:
 424 0008 00000000 		.word	m
 425              		.cfi_endproc
 426              	.LFE535:
 428              		.comm	m,8,4
 429              		.text
 430              	.Letext0:
 431              		.file 2 "c:\\program files (x86)\\gnu tools arm embedded\\9 2019-q4-major\\arm-none-eabi\\include\
 432              		.file 3 "c:\\program files (x86)\\gnu tools arm embedded\\9 2019-q4-major\\arm-none-eabi\\include\
 433              		.file 4 "c:\\program files (x86)\\gnu tools arm embedded\\9 2019-q4-major\\arm-none-eabi\\include\
 434              		.file 5 "c:\\program files (x86)\\gnu tools arm embedded\\9 2019-q4-major\\arm-none-eabi\\include\
 435              		.file 6 "c:\\program files (x86)\\gnu tools arm embedded\\9 2019-q4-major\\lib\\gcc\\arm-none-eabi
 436              		.file 7 "c:\\program files (x86)\\gnu tools arm embedded\\9 2019-q4-major\\arm-none-eabi\\include\
 437              		.file 8 "c:\\program files (x86)\\gnu tools arm embedded\\9 2019-q4-major\\arm-none-eabi\\include\
 438              		.file 9 "Inc/stepper.h"
 439              		.file 10 "Drivers/CMSIS/Include/core_cm3.h"
 440              		.file 11 "Drivers/CMSIS/Device/ST/STM32F1xx/Include/system_stm32f1xx.h"
 441              		.file 12 "Drivers/CMSIS/Device/ST/STM32F1xx/Include/stm32f103xb.h"
 442              		.file 13 "Drivers/STM32F1xx_HAL_Driver/Inc/stm32f1xx_hal.h"
 443              		.file 14 "Drivers/STM32F1xx_HAL_Driver/Inc/stm32f1xx_hal_gpio.h"
 444              		.file 15 "Inc/dwt_delay.h"
 445              		.file 16 "Drivers/STM32F1xx_HAL_Driver/Inc/stm32f1xx_ll_dma.h"
ARM GAS  C:\Users\Brandon\AppData\Local\Temp\ccOu4meC.s 			page 11

