ARM GAS  C:\Users\Brandon\AppData\Local\Temp\ccAY6ihg.s 			page 1


   1              		.cpu cortex-m3
   2              		.eabi_attribute 20, 1
   3              		.eabi_attribute 21, 1
   4              		.eabi_attribute 23, 3
   5              		.eabi_attribute 24, 1
   6              		.eabi_attribute 25, 1
   7              		.eabi_attribute 26, 1
   8              		.eabi_attribute 30, 1
   9              		.eabi_attribute 34, 1
  10              		.eabi_attribute 18, 4
  11              		.file	"utility.c"
  12              		.text
  13              	.Ltext0:
  14              		.cfi_sections	.debug_frame
  15              		.section	.text.MX_DMA_Init,"ax",%progbits
  16              		.align	1
  17              		.global	MX_DMA_Init
  18              		.arch armv7-m
  19              		.syntax unified
  20              		.thumb
  21              		.thumb_func
  22              		.fpu softvfp
  24              	MX_DMA_Init:
  25              	.LFB530:
  26              		.file 1 "Src/utility.c"
   1:Src/utility.c **** #include "utility.h"
   2:Src/utility.c **** #include "main.h"
   3:Src/utility.c **** #include "port_handler.h"
   4:Src/utility.c **** 
   5:Src/utility.c **** I2C_HandleTypeDef hi2c2;
   6:Src/utility.c **** UART_HandleTypeDef huart1;
   7:Src/utility.c **** DMA_HandleTypeDef hdma_usart1_rx;
   8:Src/utility.c **** DMA_HandleTypeDef hdma_usart1_tx;
   9:Src/utility.c **** extern Parameters *PARAM;
  10:Src/utility.c **** 
  11:Src/utility.c **** /**
  12:Src/utility.c ****   * @brief System Clock Configuration
  13:Src/utility.c ****   * @retval None
  14:Src/utility.c ****   */
  15:Src/utility.c **** void SystemClock_Config(void)
  16:Src/utility.c **** {
  17:Src/utility.c ****   RCC_OscInitTypeDef RCC_OscInitStruct = {0};
  18:Src/utility.c ****   RCC_ClkInitTypeDef RCC_ClkInitStruct = {0};
  19:Src/utility.c **** 
  20:Src/utility.c ****   /** Initializes the CPU, AHB and APB busses clocks 
  21:Src/utility.c ****   */
  22:Src/utility.c ****   RCC_OscInitStruct.OscillatorType = RCC_OSCILLATORTYPE_HSE;
  23:Src/utility.c ****   RCC_OscInitStruct.HSEState = RCC_HSE_ON;
  24:Src/utility.c ****   RCC_OscInitStruct.HSEPredivValue = RCC_HSE_PREDIV_DIV1;
  25:Src/utility.c ****   RCC_OscInitStruct.HSIState = RCC_HSI_ON;
  26:Src/utility.c ****   RCC_OscInitStruct.PLL.PLLState = RCC_PLL_ON;
  27:Src/utility.c ****   RCC_OscInitStruct.PLL.PLLSource = RCC_PLLSOURCE_HSE;
  28:Src/utility.c ****   RCC_OscInitStruct.PLL.PLLMUL = RCC_PLL_MUL9;
  29:Src/utility.c ****   if (HAL_RCC_OscConfig(&RCC_OscInitStruct) != HAL_OK)
  30:Src/utility.c ****   {
  31:Src/utility.c ****     Error_Handler();
  32:Src/utility.c ****   }
ARM GAS  C:\Users\Brandon\AppData\Local\Temp\ccAY6ihg.s 			page 2


  33:Src/utility.c ****   /** Initializes the CPU, AHB and APB busses clocks 
  34:Src/utility.c ****   */
  35:Src/utility.c ****   RCC_ClkInitStruct.ClockType = RCC_CLOCKTYPE_HCLK|RCC_CLOCKTYPE_SYSCLK
  36:Src/utility.c ****                               |RCC_CLOCKTYPE_PCLK1|RCC_CLOCKTYPE_PCLK2;
  37:Src/utility.c ****   RCC_ClkInitStruct.SYSCLKSource = RCC_SYSCLKSOURCE_PLLCLK;
  38:Src/utility.c ****   RCC_ClkInitStruct.AHBCLKDivider = RCC_SYSCLK_DIV1;
  39:Src/utility.c ****   RCC_ClkInitStruct.APB1CLKDivider = RCC_HCLK_DIV2;
  40:Src/utility.c ****   RCC_ClkInitStruct.APB2CLKDivider = RCC_HCLK_DIV1;
  41:Src/utility.c **** 
  42:Src/utility.c ****   if (HAL_RCC_ClockConfig(&RCC_ClkInitStruct, FLASH_LATENCY_2) != HAL_OK)
  43:Src/utility.c ****   {
  44:Src/utility.c ****     Error_Handler();
  45:Src/utility.c ****   }
  46:Src/utility.c **** }
  47:Src/utility.c **** 
  48:Src/utility.c **** /**
  49:Src/utility.c ****   * @brief I2C2 Initialization Function
  50:Src/utility.c ****   * @param None
  51:Src/utility.c ****   * @retval None
  52:Src/utility.c ****   */
  53:Src/utility.c **** void MX_I2C2_Init(void)
  54:Src/utility.c **** {
  55:Src/utility.c **** 
  56:Src/utility.c ****   /* USER CODE BEGIN I2C2_Init 0 */
  57:Src/utility.c **** 
  58:Src/utility.c ****   /* USER CODE END I2C2_Init 0 */
  59:Src/utility.c **** 
  60:Src/utility.c ****   /* USER CODE BEGIN I2C2_Init 1 */
  61:Src/utility.c **** 
  62:Src/utility.c ****   /* USER CODE END I2C2_Init 1 */
  63:Src/utility.c ****   hi2c2.Instance = I2C2;
  64:Src/utility.c ****   hi2c2.Init.ClockSpeed = 100000;
  65:Src/utility.c ****   hi2c2.Init.DutyCycle = I2C_DUTYCYCLE_2;
  66:Src/utility.c ****   hi2c2.Init.OwnAddress1 = 0;
  67:Src/utility.c ****   hi2c2.Init.AddressingMode = I2C_ADDRESSINGMODE_7BIT;
  68:Src/utility.c ****   hi2c2.Init.DualAddressMode = I2C_DUALADDRESS_DISABLE;
  69:Src/utility.c ****   hi2c2.Init.OwnAddress2 = 0;
  70:Src/utility.c ****   hi2c2.Init.GeneralCallMode = I2C_GENERALCALL_DISABLE;
  71:Src/utility.c ****   hi2c2.Init.NoStretchMode = I2C_NOSTRETCH_DISABLE;
  72:Src/utility.c ****   if (HAL_I2C_Init(&hi2c2) != HAL_OK)
  73:Src/utility.c ****   {
  74:Src/utility.c ****     Error_Handler();
  75:Src/utility.c ****   }
  76:Src/utility.c ****   /* USER CODE BEGIN I2C2_Init 2 */
  77:Src/utility.c **** 
  78:Src/utility.c ****   /* USER CODE END I2C2_Init 2 */
  79:Src/utility.c **** 
  80:Src/utility.c **** }
  81:Src/utility.c **** 
  82:Src/utility.c **** /**
  83:Src/utility.c ****   * @brief USART1 Initialization Function
  84:Src/utility.c ****   * @param None
  85:Src/utility.c ****   * @retval None
  86:Src/utility.c ****   */
  87:Src/utility.c **** void MX_USART1_UART_Init(void)
  88:Src/utility.c **** {
  89:Src/utility.c **** 
ARM GAS  C:\Users\Brandon\AppData\Local\Temp\ccAY6ihg.s 			page 3


  90:Src/utility.c ****   /* USER CODE BEGIN USART1_Init 0 */
  91:Src/utility.c **** 
  92:Src/utility.c ****   /* USER CODE END USART1_Init 0 */
  93:Src/utility.c **** 
  94:Src/utility.c ****   /* USER CODE BEGIN USART1_Init 1 */
  95:Src/utility.c **** 
  96:Src/utility.c ****   /* USER CODE END USART1_Init 1 */
  97:Src/utility.c ****   huart1.Instance = USART1;
  98:Src/utility.c ****   huart1.Init.BaudRate = PARAM->BAUD;
  99:Src/utility.c ****   huart1.Init.WordLength = UART_WORDLENGTH_8B;
 100:Src/utility.c ****   huart1.Init.StopBits = UART_STOPBITS_1;
 101:Src/utility.c ****   huart1.Init.Parity = UART_PARITY_NONE;
 102:Src/utility.c ****   huart1.Init.Mode = UART_MODE_TX_RX;
 103:Src/utility.c ****   huart1.Init.HwFlowCtl = UART_HWCONTROL_NONE;
 104:Src/utility.c ****   huart1.Init.OverSampling = UART_OVERSAMPLING_16;
 105:Src/utility.c ****   if (HAL_UART_Init(&huart1) != HAL_OK)
 106:Src/utility.c ****   {
 107:Src/utility.c ****     Error_Handler();
 108:Src/utility.c ****   }
 109:Src/utility.c ****   /* USER CODE BEGIN USART1_Init 2 */
 110:Src/utility.c **** 
 111:Src/utility.c ****   /* USER CODE END USART1_Init 2 */
 112:Src/utility.c **** 
 113:Src/utility.c **** }
 114:Src/utility.c **** 
 115:Src/utility.c **** /** 
 116:Src/utility.c ****   * Enable DMA controller clock
 117:Src/utility.c ****   */
 118:Src/utility.c **** void MX_DMA_Init(void) 
 119:Src/utility.c **** {
  27              		.loc 1 119 1 view -0
  28              		.cfi_startproc
  29              		@ args = 0, pretend = 0, frame = 8
  30              		@ frame_needed = 0, uses_anonymous_args = 0
  31 0000 00B5     		push	{lr}
  32              	.LCFI0:
  33              		.cfi_def_cfa_offset 4
  34              		.cfi_offset 14, -4
  35 0002 83B0     		sub	sp, sp, #12
  36              	.LCFI1:
  37              		.cfi_def_cfa_offset 16
 120:Src/utility.c **** 
 121:Src/utility.c ****   /* DMA controller clock enable */
 122:Src/utility.c ****   __HAL_RCC_DMA1_CLK_ENABLE();
  38              		.loc 1 122 3 view .LVU1
  39              	.LBB2:
  40              		.loc 1 122 3 view .LVU2
  41              		.loc 1 122 3 view .LVU3
  42 0004 0E4B     		ldr	r3, .L3
  43 0006 5A69     		ldr	r2, [r3, #20]
  44 0008 42F00102 		orr	r2, r2, #1
  45 000c 5A61     		str	r2, [r3, #20]
  46              		.loc 1 122 3 view .LVU4
  47 000e 5B69     		ldr	r3, [r3, #20]
  48 0010 03F00103 		and	r3, r3, #1
  49 0014 0193     		str	r3, [sp, #4]
  50              		.loc 1 122 3 view .LVU5
ARM GAS  C:\Users\Brandon\AppData\Local\Temp\ccAY6ihg.s 			page 4


  51 0016 019B     		ldr	r3, [sp, #4]
  52              	.LBE2:
  53              		.loc 1 122 3 view .LVU6
 123:Src/utility.c **** 
 124:Src/utility.c ****   /* DMA interrupt init */
 125:Src/utility.c ****   /* DMA1_Channel4_IRQn interrupt configuration */
 126:Src/utility.c ****   HAL_NVIC_SetPriority(DMA1_Channel4_IRQn, 1, 0);
  54              		.loc 1 126 3 view .LVU7
  55 0018 0022     		movs	r2, #0
  56 001a 0121     		movs	r1, #1
  57 001c 0E20     		movs	r0, #14
  58 001e FFF7FEFF 		bl	HAL_NVIC_SetPriority
  59              	.LVL0:
 127:Src/utility.c ****   HAL_NVIC_EnableIRQ(DMA1_Channel4_IRQn);
  60              		.loc 1 127 3 view .LVU8
  61 0022 0E20     		movs	r0, #14
  62 0024 FFF7FEFF 		bl	HAL_NVIC_EnableIRQ
  63              	.LVL1:
 128:Src/utility.c ****   /* DMA1_Channel5_IRQn interrupt configuration */
 129:Src/utility.c ****   HAL_NVIC_SetPriority(DMA1_Channel5_IRQn, 1, 1);
  64              		.loc 1 129 3 view .LVU9
  65 0028 0122     		movs	r2, #1
  66 002a 1146     		mov	r1, r2
  67 002c 0F20     		movs	r0, #15
  68 002e FFF7FEFF 		bl	HAL_NVIC_SetPriority
  69              	.LVL2:
 130:Src/utility.c ****   HAL_NVIC_EnableIRQ(DMA1_Channel5_IRQn);
  70              		.loc 1 130 3 view .LVU10
  71 0032 0F20     		movs	r0, #15
  72 0034 FFF7FEFF 		bl	HAL_NVIC_EnableIRQ
  73              	.LVL3:
 131:Src/utility.c **** 
 132:Src/utility.c **** 
 133:Src/utility.c **** }
  74              		.loc 1 133 1 is_stmt 0 view .LVU11
  75 0038 03B0     		add	sp, sp, #12
  76              	.LCFI2:
  77              		.cfi_def_cfa_offset 4
  78              		@ sp needed
  79 003a 5DF804FB 		ldr	pc, [sp], #4
  80              	.L4:
  81 003e 00BF     		.align	2
  82              	.L3:
  83 0040 00100240 		.word	1073876992
  84              		.cfi_endproc
  85              	.LFE530:
  87              		.section	.text.MX_GPIO_Init,"ax",%progbits
  88              		.align	1
  89              		.global	MX_GPIO_Init
  90              		.syntax unified
  91              		.thumb
  92              		.thumb_func
  93              		.fpu softvfp
  95              	MX_GPIO_Init:
  96              	.LFB531:
 134:Src/utility.c **** 
 135:Src/utility.c **** /**
ARM GAS  C:\Users\Brandon\AppData\Local\Temp\ccAY6ihg.s 			page 5


 136:Src/utility.c ****   * @brief GPIO Initialization Function
 137:Src/utility.c ****   * @param None
 138:Src/utility.c ****   * @retval None
 139:Src/utility.c ****   */
 140:Src/utility.c **** void MX_GPIO_Init(void)
 141:Src/utility.c **** {
  97              		.loc 1 141 1 is_stmt 1 view -0
  98              		.cfi_startproc
  99              		@ args = 0, pretend = 0, frame = 32
 100              		@ frame_needed = 0, uses_anonymous_args = 0
 101 0000 2DE9F041 		push	{r4, r5, r6, r7, r8, lr}
 102              	.LCFI3:
 103              		.cfi_def_cfa_offset 24
 104              		.cfi_offset 4, -24
 105              		.cfi_offset 5, -20
 106              		.cfi_offset 6, -16
 107              		.cfi_offset 7, -12
 108              		.cfi_offset 8, -8
 109              		.cfi_offset 14, -4
 110 0004 88B0     		sub	sp, sp, #32
 111              	.LCFI4:
 112              		.cfi_def_cfa_offset 56
 142:Src/utility.c ****   GPIO_InitTypeDef GPIO_InitStruct = {0};
 113              		.loc 1 142 3 view .LVU13
 114              		.loc 1 142 20 is_stmt 0 view .LVU14
 115 0006 0024     		movs	r4, #0
 116 0008 0494     		str	r4, [sp, #16]
 117 000a 0594     		str	r4, [sp, #20]
 118 000c 0694     		str	r4, [sp, #24]
 119 000e 0794     		str	r4, [sp, #28]
 143:Src/utility.c **** 
 144:Src/utility.c ****   /* GPIO Ports Clock Enable */
 145:Src/utility.c ****   __HAL_RCC_GPIOD_CLK_ENABLE();
 120              		.loc 1 145 3 is_stmt 1 view .LVU15
 121              	.LBB3:
 122              		.loc 1 145 3 view .LVU16
 123              		.loc 1 145 3 view .LVU17
 124 0010 214B     		ldr	r3, .L7
 125 0012 9A69     		ldr	r2, [r3, #24]
 126 0014 42F02002 		orr	r2, r2, #32
 127 0018 9A61     		str	r2, [r3, #24]
 128              		.loc 1 145 3 view .LVU18
 129 001a 9A69     		ldr	r2, [r3, #24]
 130 001c 02F02002 		and	r2, r2, #32
 131 0020 0192     		str	r2, [sp, #4]
 132              		.loc 1 145 3 view .LVU19
 133 0022 019A     		ldr	r2, [sp, #4]
 134              	.LBE3:
 135              		.loc 1 145 3 view .LVU20
 146:Src/utility.c ****   __HAL_RCC_GPIOA_CLK_ENABLE();
 136              		.loc 1 146 3 view .LVU21
 137              	.LBB4:
 138              		.loc 1 146 3 view .LVU22
 139              		.loc 1 146 3 view .LVU23
 140 0024 9A69     		ldr	r2, [r3, #24]
 141 0026 42F00402 		orr	r2, r2, #4
 142 002a 9A61     		str	r2, [r3, #24]
ARM GAS  C:\Users\Brandon\AppData\Local\Temp\ccAY6ihg.s 			page 6


 143              		.loc 1 146 3 view .LVU24
 144 002c 9A69     		ldr	r2, [r3, #24]
 145 002e 02F00402 		and	r2, r2, #4
 146 0032 0292     		str	r2, [sp, #8]
 147              		.loc 1 146 3 view .LVU25
 148 0034 029A     		ldr	r2, [sp, #8]
 149              	.LBE4:
 150              		.loc 1 146 3 view .LVU26
 147:Src/utility.c ****   __HAL_RCC_GPIOB_CLK_ENABLE();
 151              		.loc 1 147 3 view .LVU27
 152              	.LBB5:
 153              		.loc 1 147 3 view .LVU28
 154              		.loc 1 147 3 view .LVU29
 155 0036 9A69     		ldr	r2, [r3, #24]
 156 0038 42F00802 		orr	r2, r2, #8
 157 003c 9A61     		str	r2, [r3, #24]
 158              		.loc 1 147 3 view .LVU30
 159 003e 9B69     		ldr	r3, [r3, #24]
 160 0040 03F00803 		and	r3, r3, #8
 161 0044 0393     		str	r3, [sp, #12]
 162              		.loc 1 147 3 view .LVU31
 163 0046 039B     		ldr	r3, [sp, #12]
 164              	.LBE5:
 165              		.loc 1 147 3 view .LVU32
 148:Src/utility.c **** 
 149:Src/utility.c ****   /*Configure GPIO pin Output Level */
 150:Src/utility.c ****   HAL_GPIO_WritePin(GPIOA, FAN_Pin|LED_Pin|STEP_Pin|ENABLE_Pin 
 166              		.loc 1 150 3 view .LVU33
 167 0048 DFF85480 		ldr	r8, .L7+8
 168 004c 2246     		mov	r2, r4
 169 004e 40F20C71 		movw	r1, #1804
 170 0052 4046     		mov	r0, r8
 171 0054 FFF7FEFF 		bl	HAL_GPIO_WritePin
 172              	.LVL4:
 151:Src/utility.c ****                           |STEP_DIR_Pin, GPIO_PIN_RESET);
 152:Src/utility.c **** 
 153:Src/utility.c ****   /*Configure GPIO pin Output Level */
 154:Src/utility.c ****   HAL_GPIO_WritePin(GPIOB, M2_Pin|M1_Pin|M0_Pin|DATA_DIR_Pin, GPIO_PIN_RESET);
 173              		.loc 1 154 3 view .LVU34
 174 0058 104D     		ldr	r5, .L7+4
 175 005a 2246     		mov	r2, r4
 176 005c 4EF22001 		movw	r1, #57376
 177 0060 2846     		mov	r0, r5
 178 0062 FFF7FEFF 		bl	HAL_GPIO_WritePin
 179              	.LVL5:
 155:Src/utility.c **** 
 156:Src/utility.c ****   /*Configure GPIO pins : FAN_Pin LED_Pin STEP_Pin ENABLE_Pin 
 157:Src/utility.c ****                            STEP_DIR_Pin */
 158:Src/utility.c ****   GPIO_InitStruct.Pin = FAN_Pin|LED_Pin|STEP_Pin|ENABLE_Pin 
 180              		.loc 1 158 3 view .LVU35
 181              		.loc 1 158 23 is_stmt 0 view .LVU36
 182 0066 40F20C73 		movw	r3, #1804
 183 006a 0493     		str	r3, [sp, #16]
 159:Src/utility.c ****                           |STEP_DIR_Pin;
 160:Src/utility.c ****   GPIO_InitStruct.Mode = GPIO_MODE_OUTPUT_PP;
 184              		.loc 1 160 3 is_stmt 1 view .LVU37
 185              		.loc 1 160 24 is_stmt 0 view .LVU38
ARM GAS  C:\Users\Brandon\AppData\Local\Temp\ccAY6ihg.s 			page 7


 186 006c 0127     		movs	r7, #1
 187 006e 0597     		str	r7, [sp, #20]
 161:Src/utility.c ****   GPIO_InitStruct.Pull = GPIO_NOPULL;
 188              		.loc 1 161 3 is_stmt 1 view .LVU39
 189              		.loc 1 161 24 is_stmt 0 view .LVU40
 190 0070 0694     		str	r4, [sp, #24]
 162:Src/utility.c ****   GPIO_InitStruct.Speed = GPIO_SPEED_FREQ_HIGH;
 191              		.loc 1 162 3 is_stmt 1 view .LVU41
 192              		.loc 1 162 25 is_stmt 0 view .LVU42
 193 0072 0326     		movs	r6, #3
 194 0074 0796     		str	r6, [sp, #28]
 163:Src/utility.c ****   HAL_GPIO_Init(GPIOA, &GPIO_InitStruct);
 195              		.loc 1 163 3 is_stmt 1 view .LVU43
 196 0076 04A9     		add	r1, sp, #16
 197 0078 4046     		mov	r0, r8
 198 007a FFF7FEFF 		bl	HAL_GPIO_Init
 199              	.LVL6:
 164:Src/utility.c **** 
 165:Src/utility.c ****   /*Configure GPIO pins : M2_Pin M1_Pin M0_Pin DATA_DIR_Pin */
 166:Src/utility.c ****   GPIO_InitStruct.Pin = M2_Pin|M1_Pin|M0_Pin|DATA_DIR_Pin;
 200              		.loc 1 166 3 view .LVU44
 201              		.loc 1 166 23 is_stmt 0 view .LVU45
 202 007e 4EF22003 		movw	r3, #57376
 203 0082 0493     		str	r3, [sp, #16]
 167:Src/utility.c ****   GPIO_InitStruct.Mode = GPIO_MODE_OUTPUT_PP;
 204              		.loc 1 167 3 is_stmt 1 view .LVU46
 205              		.loc 1 167 24 is_stmt 0 view .LVU47
 206 0084 0597     		str	r7, [sp, #20]
 168:Src/utility.c ****   GPIO_InitStruct.Pull = GPIO_NOPULL;
 207              		.loc 1 168 3 is_stmt 1 view .LVU48
 208              		.loc 1 168 24 is_stmt 0 view .LVU49
 209 0086 0694     		str	r4, [sp, #24]
 169:Src/utility.c ****   GPIO_InitStruct.Speed = GPIO_SPEED_FREQ_HIGH;
 210              		.loc 1 169 3 is_stmt 1 view .LVU50
 211              		.loc 1 169 25 is_stmt 0 view .LVU51
 212 0088 0796     		str	r6, [sp, #28]
 170:Src/utility.c ****   HAL_GPIO_Init(GPIOB, &GPIO_InitStruct);
 213              		.loc 1 170 3 is_stmt 1 view .LVU52
 214 008a 04A9     		add	r1, sp, #16
 215 008c 2846     		mov	r0, r5
 216 008e FFF7FEFF 		bl	HAL_GPIO_Init
 217              	.LVL7:
 171:Src/utility.c **** 
 172:Src/utility.c **** }
 218              		.loc 1 172 1 is_stmt 0 view .LVU53
 219 0092 08B0     		add	sp, sp, #32
 220              	.LCFI5:
 221              		.cfi_def_cfa_offset 24
 222              		@ sp needed
 223 0094 BDE8F081 		pop	{r4, r5, r6, r7, r8, pc}
 224              	.L8:
 225              		.align	2
 226              	.L7:
 227 0098 00100240 		.word	1073876992
 228 009c 000C0140 		.word	1073810432
 229 00a0 00080140 		.word	1073809408
 230              		.cfi_endproc
ARM GAS  C:\Users\Brandon\AppData\Local\Temp\ccAY6ihg.s 			page 8


 231              	.LFE531:
 233              		.section	.text.Error_Handler,"ax",%progbits
 234              		.align	1
 235              		.global	Error_Handler
 236              		.syntax unified
 237              		.thumb
 238              		.thumb_func
 239              		.fpu softvfp
 241              	Error_Handler:
 242              	.LFB532:
 173:Src/utility.c **** 
 174:Src/utility.c **** 
 175:Src/utility.c **** /**
 176:Src/utility.c ****   * @brief  This function is executed in case of error occurrence.
 177:Src/utility.c ****   *         Indicates a fault has occured nad blinks at 1 second intervals.
 178:Src/utility.c ****   * @retval None
 179:Src/utility.c ****   */
 180:Src/utility.c **** void Error_Handler(void)
 181:Src/utility.c **** {
 243              		.loc 1 181 1 is_stmt 1 view -0
 244              		.cfi_startproc
 245              		@ Volatile: function does not return.
 246              		@ args = 0, pretend = 0, frame = 0
 247              		@ frame_needed = 0, uses_anonymous_args = 0
 248 0000 08B5     		push	{r3, lr}
 249              	.LCFI6:
 250              		.cfi_def_cfa_offset 8
 251              		.cfi_offset 3, -8
 252              		.cfi_offset 14, -4
 253              	.L10:
 182:Src/utility.c ****   while (1){
 254              		.loc 1 182 3 discriminator 1 view .LVU55
 183:Src/utility.c ****     HAL_GPIO_WritePin(LED_GPIO_Port, LED_Pin, HIGH);
 255              		.loc 1 183 5 discriminator 1 view .LVU56
 256 0002 0A4C     		ldr	r4, .L12
 257 0004 0122     		movs	r2, #1
 258 0006 0821     		movs	r1, #8
 259 0008 2046     		mov	r0, r4
 260 000a FFF7FEFF 		bl	HAL_GPIO_WritePin
 261              	.LVL8:
 184:Src/utility.c ****     HAL_Delay(1000);
 262              		.loc 1 184 5 discriminator 1 view .LVU57
 263 000e 4FF47A70 		mov	r0, #1000
 264 0012 FFF7FEFF 		bl	HAL_Delay
 265              	.LVL9:
 185:Src/utility.c ****     HAL_GPIO_WritePin(LED_GPIO_Port, LED_Pin, LOW);
 266              		.loc 1 185 5 discriminator 1 view .LVU58
 267 0016 0022     		movs	r2, #0
 268 0018 0821     		movs	r1, #8
 269 001a 2046     		mov	r0, r4
 270 001c FFF7FEFF 		bl	HAL_GPIO_WritePin
 271              	.LVL10:
 186:Src/utility.c ****     HAL_Delay(1000);  
 272              		.loc 1 186 5 discriminator 1 view .LVU59
 273 0020 4FF47A70 		mov	r0, #1000
 274 0024 FFF7FEFF 		bl	HAL_Delay
 275              	.LVL11:
ARM GAS  C:\Users\Brandon\AppData\Local\Temp\ccAY6ihg.s 			page 9


 182:Src/utility.c ****     HAL_GPIO_WritePin(LED_GPIO_Port, LED_Pin, HIGH);
 276              		.loc 1 182 9 discriminator 1 view .LVU60
 277 0028 EBE7     		b	.L10
 278              	.L13:
 279 002a 00BF     		.align	2
 280              	.L12:
 281 002c 00080140 		.word	1073809408
 282              		.cfi_endproc
 283              	.LFE532:
 285              		.section	.text.SystemClock_Config,"ax",%progbits
 286              		.align	1
 287              		.global	SystemClock_Config
 288              		.syntax unified
 289              		.thumb
 290              		.thumb_func
 291              		.fpu softvfp
 293              	SystemClock_Config:
 294              	.LFB527:
  16:Src/utility.c ****   RCC_OscInitTypeDef RCC_OscInitStruct = {0};
 295              		.loc 1 16 1 view -0
 296              		.cfi_startproc
 297              		@ args = 0, pretend = 0, frame = 64
 298              		@ frame_needed = 0, uses_anonymous_args = 0
 299 0000 00B5     		push	{lr}
 300              	.LCFI7:
 301              		.cfi_def_cfa_offset 4
 302              		.cfi_offset 14, -4
 303 0002 91B0     		sub	sp, sp, #68
 304              	.LCFI8:
 305              		.cfi_def_cfa_offset 72
  17:Src/utility.c ****   RCC_ClkInitTypeDef RCC_ClkInitStruct = {0};
 306              		.loc 1 17 3 view .LVU62
  17:Src/utility.c ****   RCC_ClkInitTypeDef RCC_ClkInitStruct = {0};
 307              		.loc 1 17 22 is_stmt 0 view .LVU63
 308 0004 0023     		movs	r3, #0
 309 0006 0993     		str	r3, [sp, #36]
 310 0008 0B93     		str	r3, [sp, #44]
 311 000a 0C93     		str	r3, [sp, #48]
  18:Src/utility.c **** 
 312              		.loc 1 18 3 is_stmt 1 view .LVU64
  18:Src/utility.c **** 
 313              		.loc 1 18 22 is_stmt 0 view .LVU65
 314 000c 0193     		str	r3, [sp, #4]
 315 000e 0293     		str	r3, [sp, #8]
 316 0010 0393     		str	r3, [sp, #12]
 317 0012 0493     		str	r3, [sp, #16]
 318 0014 0593     		str	r3, [sp, #20]
  22:Src/utility.c ****   RCC_OscInitStruct.HSEState = RCC_HSE_ON;
 319              		.loc 1 22 3 is_stmt 1 view .LVU66
  22:Src/utility.c ****   RCC_OscInitStruct.HSEState = RCC_HSE_ON;
 320              		.loc 1 22 36 is_stmt 0 view .LVU67
 321 0016 0121     		movs	r1, #1
 322 0018 0691     		str	r1, [sp, #24]
  23:Src/utility.c ****   RCC_OscInitStruct.HSEPredivValue = RCC_HSE_PREDIV_DIV1;
 323              		.loc 1 23 3 is_stmt 1 view .LVU68
  23:Src/utility.c ****   RCC_OscInitStruct.HSEPredivValue = RCC_HSE_PREDIV_DIV1;
 324              		.loc 1 23 30 is_stmt 0 view .LVU69
ARM GAS  C:\Users\Brandon\AppData\Local\Temp\ccAY6ihg.s 			page 10


 325 001a 4FF48032 		mov	r2, #65536
 326 001e 0792     		str	r2, [sp, #28]
  24:Src/utility.c ****   RCC_OscInitStruct.HSIState = RCC_HSI_ON;
 327              		.loc 1 24 3 is_stmt 1 view .LVU70
  24:Src/utility.c ****   RCC_OscInitStruct.HSIState = RCC_HSI_ON;
 328              		.loc 1 24 36 is_stmt 0 view .LVU71
 329 0020 0893     		str	r3, [sp, #32]
  25:Src/utility.c ****   RCC_OscInitStruct.PLL.PLLState = RCC_PLL_ON;
 330              		.loc 1 25 3 is_stmt 1 view .LVU72
  25:Src/utility.c ****   RCC_OscInitStruct.PLL.PLLState = RCC_PLL_ON;
 331              		.loc 1 25 30 is_stmt 0 view .LVU73
 332 0022 0A91     		str	r1, [sp, #40]
  26:Src/utility.c ****   RCC_OscInitStruct.PLL.PLLSource = RCC_PLLSOURCE_HSE;
 333              		.loc 1 26 3 is_stmt 1 view .LVU74
  26:Src/utility.c ****   RCC_OscInitStruct.PLL.PLLSource = RCC_PLLSOURCE_HSE;
 334              		.loc 1 26 34 is_stmt 0 view .LVU75
 335 0024 0223     		movs	r3, #2
 336 0026 0D93     		str	r3, [sp, #52]
  27:Src/utility.c ****   RCC_OscInitStruct.PLL.PLLMUL = RCC_PLL_MUL9;
 337              		.loc 1 27 3 is_stmt 1 view .LVU76
  27:Src/utility.c ****   RCC_OscInitStruct.PLL.PLLMUL = RCC_PLL_MUL9;
 338              		.loc 1 27 35 is_stmt 0 view .LVU77
 339 0028 0E92     		str	r2, [sp, #56]
  28:Src/utility.c ****   if (HAL_RCC_OscConfig(&RCC_OscInitStruct) != HAL_OK)
 340              		.loc 1 28 3 is_stmt 1 view .LVU78
  28:Src/utility.c ****   if (HAL_RCC_OscConfig(&RCC_OscInitStruct) != HAL_OK)
 341              		.loc 1 28 32 is_stmt 0 view .LVU79
 342 002a 4FF4E013 		mov	r3, #1835008
 343 002e 0F93     		str	r3, [sp, #60]
  29:Src/utility.c ****   {
 344              		.loc 1 29 3 is_stmt 1 view .LVU80
  29:Src/utility.c ****   {
 345              		.loc 1 29 7 is_stmt 0 view .LVU81
 346 0030 06A8     		add	r0, sp, #24
 347 0032 FFF7FEFF 		bl	HAL_RCC_OscConfig
 348              	.LVL12:
  29:Src/utility.c ****   {
 349              		.loc 1 29 6 view .LVU82
 350 0036 80B9     		cbnz	r0, .L18
  35:Src/utility.c ****                               |RCC_CLOCKTYPE_PCLK1|RCC_CLOCKTYPE_PCLK2;
 351              		.loc 1 35 3 is_stmt 1 view .LVU83
  35:Src/utility.c ****                               |RCC_CLOCKTYPE_PCLK1|RCC_CLOCKTYPE_PCLK2;
 352              		.loc 1 35 31 is_stmt 0 view .LVU84
 353 0038 0F23     		movs	r3, #15
 354 003a 0193     		str	r3, [sp, #4]
  37:Src/utility.c ****   RCC_ClkInitStruct.AHBCLKDivider = RCC_SYSCLK_DIV1;
 355              		.loc 1 37 3 is_stmt 1 view .LVU85
  37:Src/utility.c ****   RCC_ClkInitStruct.AHBCLKDivider = RCC_SYSCLK_DIV1;
 356              		.loc 1 37 34 is_stmt 0 view .LVU86
 357 003c 0221     		movs	r1, #2
 358 003e 0291     		str	r1, [sp, #8]
  38:Src/utility.c ****   RCC_ClkInitStruct.APB1CLKDivider = RCC_HCLK_DIV2;
 359              		.loc 1 38 3 is_stmt 1 view .LVU87
  38:Src/utility.c ****   RCC_ClkInitStruct.APB1CLKDivider = RCC_HCLK_DIV2;
 360              		.loc 1 38 35 is_stmt 0 view .LVU88
 361 0040 0023     		movs	r3, #0
 362 0042 0393     		str	r3, [sp, #12]
ARM GAS  C:\Users\Brandon\AppData\Local\Temp\ccAY6ihg.s 			page 11


  39:Src/utility.c ****   RCC_ClkInitStruct.APB2CLKDivider = RCC_HCLK_DIV1;
 363              		.loc 1 39 3 is_stmt 1 view .LVU89
  39:Src/utility.c ****   RCC_ClkInitStruct.APB2CLKDivider = RCC_HCLK_DIV1;
 364              		.loc 1 39 36 is_stmt 0 view .LVU90
 365 0044 4FF48062 		mov	r2, #1024
 366 0048 0492     		str	r2, [sp, #16]
  40:Src/utility.c **** 
 367              		.loc 1 40 3 is_stmt 1 view .LVU91
  40:Src/utility.c **** 
 368              		.loc 1 40 36 is_stmt 0 view .LVU92
 369 004a 0593     		str	r3, [sp, #20]
  42:Src/utility.c ****   {
 370              		.loc 1 42 3 is_stmt 1 view .LVU93
  42:Src/utility.c ****   {
 371              		.loc 1 42 7 is_stmt 0 view .LVU94
 372 004c 01A8     		add	r0, sp, #4
 373 004e FFF7FEFF 		bl	HAL_RCC_ClockConfig
 374              	.LVL13:
  42:Src/utility.c ****   {
 375              		.loc 1 42 6 view .LVU95
 376 0052 20B9     		cbnz	r0, .L19
  46:Src/utility.c **** 
 377              		.loc 1 46 1 view .LVU96
 378 0054 11B0     		add	sp, sp, #68
 379              	.LCFI9:
 380              		.cfi_remember_state
 381              		.cfi_def_cfa_offset 4
 382              		@ sp needed
 383 0056 5DF804FB 		ldr	pc, [sp], #4
 384              	.L18:
 385              	.LCFI10:
 386              		.cfi_restore_state
  31:Src/utility.c ****   }
 387              		.loc 1 31 5 is_stmt 1 view .LVU97
 388 005a FFF7FEFF 		bl	Error_Handler
 389              	.LVL14:
 390              	.L19:
  44:Src/utility.c ****   }
 391              		.loc 1 44 5 view .LVU98
 392 005e FFF7FEFF 		bl	Error_Handler
 393              	.LVL15:
 394              		.cfi_endproc
 395              	.LFE527:
 397              		.section	.text.MX_I2C2_Init,"ax",%progbits
 398              		.align	1
 399              		.global	MX_I2C2_Init
 400              		.syntax unified
 401              		.thumb
 402              		.thumb_func
 403              		.fpu softvfp
 405              	MX_I2C2_Init:
 406              	.LFB528:
  54:Src/utility.c **** 
 407              		.loc 1 54 1 view -0
 408              		.cfi_startproc
 409              		@ args = 0, pretend = 0, frame = 0
 410              		@ frame_needed = 0, uses_anonymous_args = 0
ARM GAS  C:\Users\Brandon\AppData\Local\Temp\ccAY6ihg.s 			page 12


 411 0000 08B5     		push	{r3, lr}
 412              	.LCFI11:
 413              		.cfi_def_cfa_offset 8
 414              		.cfi_offset 3, -8
 415              		.cfi_offset 14, -4
  63:Src/utility.c ****   hi2c2.Init.ClockSpeed = 100000;
 416              		.loc 1 63 3 view .LVU100
  63:Src/utility.c ****   hi2c2.Init.ClockSpeed = 100000;
 417              		.loc 1 63 18 is_stmt 0 view .LVU101
 418 0002 0A48     		ldr	r0, .L24
 419 0004 0A4B     		ldr	r3, .L24+4
 420 0006 0360     		str	r3, [r0]
  64:Src/utility.c ****   hi2c2.Init.DutyCycle = I2C_DUTYCYCLE_2;
 421              		.loc 1 64 3 is_stmt 1 view .LVU102
  64:Src/utility.c ****   hi2c2.Init.DutyCycle = I2C_DUTYCYCLE_2;
 422              		.loc 1 64 25 is_stmt 0 view .LVU103
 423 0008 0A4B     		ldr	r3, .L24+8
 424 000a 4360     		str	r3, [r0, #4]
  65:Src/utility.c ****   hi2c2.Init.OwnAddress1 = 0;
 425              		.loc 1 65 3 is_stmt 1 view .LVU104
  65:Src/utility.c ****   hi2c2.Init.OwnAddress1 = 0;
 426              		.loc 1 65 24 is_stmt 0 view .LVU105
 427 000c 0023     		movs	r3, #0
 428 000e 8360     		str	r3, [r0, #8]
  66:Src/utility.c ****   hi2c2.Init.AddressingMode = I2C_ADDRESSINGMODE_7BIT;
 429              		.loc 1 66 3 is_stmt 1 view .LVU106
  66:Src/utility.c ****   hi2c2.Init.AddressingMode = I2C_ADDRESSINGMODE_7BIT;
 430              		.loc 1 66 26 is_stmt 0 view .LVU107
 431 0010 C360     		str	r3, [r0, #12]
  67:Src/utility.c ****   hi2c2.Init.DualAddressMode = I2C_DUALADDRESS_DISABLE;
 432              		.loc 1 67 3 is_stmt 1 view .LVU108
  67:Src/utility.c ****   hi2c2.Init.DualAddressMode = I2C_DUALADDRESS_DISABLE;
 433              		.loc 1 67 29 is_stmt 0 view .LVU109
 434 0012 4FF48042 		mov	r2, #16384
 435 0016 0261     		str	r2, [r0, #16]
  68:Src/utility.c ****   hi2c2.Init.OwnAddress2 = 0;
 436              		.loc 1 68 3 is_stmt 1 view .LVU110
  68:Src/utility.c ****   hi2c2.Init.OwnAddress2 = 0;
 437              		.loc 1 68 30 is_stmt 0 view .LVU111
 438 0018 4361     		str	r3, [r0, #20]
  69:Src/utility.c ****   hi2c2.Init.GeneralCallMode = I2C_GENERALCALL_DISABLE;
 439              		.loc 1 69 3 is_stmt 1 view .LVU112
  69:Src/utility.c ****   hi2c2.Init.GeneralCallMode = I2C_GENERALCALL_DISABLE;
 440              		.loc 1 69 26 is_stmt 0 view .LVU113
 441 001a 8361     		str	r3, [r0, #24]
  70:Src/utility.c ****   hi2c2.Init.NoStretchMode = I2C_NOSTRETCH_DISABLE;
 442              		.loc 1 70 3 is_stmt 1 view .LVU114
  70:Src/utility.c ****   hi2c2.Init.NoStretchMode = I2C_NOSTRETCH_DISABLE;
 443              		.loc 1 70 30 is_stmt 0 view .LVU115
 444 001c C361     		str	r3, [r0, #28]
  71:Src/utility.c ****   if (HAL_I2C_Init(&hi2c2) != HAL_OK)
 445              		.loc 1 71 3 is_stmt 1 view .LVU116
  71:Src/utility.c ****   if (HAL_I2C_Init(&hi2c2) != HAL_OK)
 446              		.loc 1 71 28 is_stmt 0 view .LVU117
 447 001e 0362     		str	r3, [r0, #32]
  72:Src/utility.c ****   {
 448              		.loc 1 72 3 is_stmt 1 view .LVU118
ARM GAS  C:\Users\Brandon\AppData\Local\Temp\ccAY6ihg.s 			page 13


  72:Src/utility.c ****   {
 449              		.loc 1 72 7 is_stmt 0 view .LVU119
 450 0020 FFF7FEFF 		bl	HAL_I2C_Init
 451              	.LVL16:
  72:Src/utility.c ****   {
 452              		.loc 1 72 6 view .LVU120
 453 0024 00B9     		cbnz	r0, .L23
  80:Src/utility.c **** 
 454              		.loc 1 80 1 view .LVU121
 455 0026 08BD     		pop	{r3, pc}
 456              	.L23:
  74:Src/utility.c ****   }
 457              		.loc 1 74 5 is_stmt 1 view .LVU122
 458 0028 FFF7FEFF 		bl	Error_Handler
 459              	.LVL17:
 460              	.L25:
 461              		.align	2
 462              	.L24:
 463 002c 00000000 		.word	hi2c2
 464 0030 00580040 		.word	1073764352
 465 0034 A0860100 		.word	100000
 466              		.cfi_endproc
 467              	.LFE528:
 469              		.section	.text.MX_USART1_UART_Init,"ax",%progbits
 470              		.align	1
 471              		.global	MX_USART1_UART_Init
 472              		.syntax unified
 473              		.thumb
 474              		.thumb_func
 475              		.fpu softvfp
 477              	MX_USART1_UART_Init:
 478              	.LFB529:
  88:Src/utility.c **** 
 479              		.loc 1 88 1 view -0
 480              		.cfi_startproc
 481              		@ args = 0, pretend = 0, frame = 0
 482              		@ frame_needed = 0, uses_anonymous_args = 0
 483 0000 08B5     		push	{r3, lr}
 484              	.LCFI12:
 485              		.cfi_def_cfa_offset 8
 486              		.cfi_offset 3, -8
 487              		.cfi_offset 14, -4
  97:Src/utility.c ****   huart1.Init.BaudRate = PARAM->BAUD;
 488              		.loc 1 97 3 view .LVU124
  97:Src/utility.c ****   huart1.Init.BaudRate = PARAM->BAUD;
 489              		.loc 1 97 19 is_stmt 0 view .LVU125
 490 0002 0A48     		ldr	r0, .L30
 491 0004 0A4B     		ldr	r3, .L30+4
 492 0006 0360     		str	r3, [r0]
  98:Src/utility.c ****   huart1.Init.WordLength = UART_WORDLENGTH_8B;
 493              		.loc 1 98 3 is_stmt 1 view .LVU126
  98:Src/utility.c ****   huart1.Init.WordLength = UART_WORDLENGTH_8B;
 494              		.loc 1 98 31 is_stmt 0 view .LVU127
 495 0008 0A4B     		ldr	r3, .L30+8
 496 000a 1B68     		ldr	r3, [r3]
 497 000c 5B68     		ldr	r3, [r3, #4]
  98:Src/utility.c ****   huart1.Init.WordLength = UART_WORDLENGTH_8B;
ARM GAS  C:\Users\Brandon\AppData\Local\Temp\ccAY6ihg.s 			page 14


 498              		.loc 1 98 24 view .LVU128
 499 000e 4360     		str	r3, [r0, #4]
  99:Src/utility.c ****   huart1.Init.StopBits = UART_STOPBITS_1;
 500              		.loc 1 99 3 is_stmt 1 view .LVU129
  99:Src/utility.c ****   huart1.Init.StopBits = UART_STOPBITS_1;
 501              		.loc 1 99 26 is_stmt 0 view .LVU130
 502 0010 0023     		movs	r3, #0
 503 0012 8360     		str	r3, [r0, #8]
 100:Src/utility.c ****   huart1.Init.Parity = UART_PARITY_NONE;
 504              		.loc 1 100 3 is_stmt 1 view .LVU131
 100:Src/utility.c ****   huart1.Init.Parity = UART_PARITY_NONE;
 505              		.loc 1 100 24 is_stmt 0 view .LVU132
 506 0014 C360     		str	r3, [r0, #12]
 101:Src/utility.c ****   huart1.Init.Mode = UART_MODE_TX_RX;
 507              		.loc 1 101 3 is_stmt 1 view .LVU133
 101:Src/utility.c ****   huart1.Init.Mode = UART_MODE_TX_RX;
 508              		.loc 1 101 22 is_stmt 0 view .LVU134
 509 0016 0361     		str	r3, [r0, #16]
 102:Src/utility.c ****   huart1.Init.HwFlowCtl = UART_HWCONTROL_NONE;
 510              		.loc 1 102 3 is_stmt 1 view .LVU135
 102:Src/utility.c ****   huart1.Init.HwFlowCtl = UART_HWCONTROL_NONE;
 511              		.loc 1 102 20 is_stmt 0 view .LVU136
 512 0018 0C22     		movs	r2, #12
 513 001a 4261     		str	r2, [r0, #20]
 103:Src/utility.c ****   huart1.Init.OverSampling = UART_OVERSAMPLING_16;
 514              		.loc 1 103 3 is_stmt 1 view .LVU137
 103:Src/utility.c ****   huart1.Init.OverSampling = UART_OVERSAMPLING_16;
 515              		.loc 1 103 25 is_stmt 0 view .LVU138
 516 001c 8361     		str	r3, [r0, #24]
 104:Src/utility.c ****   if (HAL_UART_Init(&huart1) != HAL_OK)
 517              		.loc 1 104 3 is_stmt 1 view .LVU139
 104:Src/utility.c ****   if (HAL_UART_Init(&huart1) != HAL_OK)
 518              		.loc 1 104 28 is_stmt 0 view .LVU140
 519 001e C361     		str	r3, [r0, #28]
 105:Src/utility.c ****   {
 520              		.loc 1 105 3 is_stmt 1 view .LVU141
 105:Src/utility.c ****   {
 521              		.loc 1 105 7 is_stmt 0 view .LVU142
 522 0020 FFF7FEFF 		bl	HAL_UART_Init
 523              	.LVL18:
 105:Src/utility.c ****   {
 524              		.loc 1 105 6 view .LVU143
 525 0024 00B9     		cbnz	r0, .L29
 113:Src/utility.c **** 
 526              		.loc 1 113 1 view .LVU144
 527 0026 08BD     		pop	{r3, pc}
 528              	.L29:
 107:Src/utility.c ****   }
 529              		.loc 1 107 5 is_stmt 1 view .LVU145
 530 0028 FFF7FEFF 		bl	Error_Handler
 531              	.LVL19:
 532              	.L31:
 533              		.align	2
 534              	.L30:
 535 002c 00000000 		.word	huart1
 536 0030 00380140 		.word	1073821696
 537 0034 00000000 		.word	PARAM
ARM GAS  C:\Users\Brandon\AppData\Local\Temp\ccAY6ihg.s 			page 15


 538              		.cfi_endproc
 539              	.LFE529:
 541              		.comm	hdma_usart1_tx,68,4
 542              		.comm	hdma_usart1_rx,68,4
 543              		.comm	huart1,64,4
 544              		.comm	hi2c2,84,4
 545              		.comm	rd_ptr,1,1
 546              		.comm	txBuffer,32,4
 547              		.comm	rxBuffer,64,4
 548              		.text
 549              	.Letext0:
 550              		.file 2 "c:\\program files (x86)\\gnu tools arm embedded\\9 2019-q4-major\\arm-none-eabi\\include\
 551              		.file 3 "c:\\program files (x86)\\gnu tools arm embedded\\9 2019-q4-major\\arm-none-eabi\\include\
 552              		.file 4 "Drivers/CMSIS/Include/core_cm3.h"
 553              		.file 5 "Drivers/CMSIS/Device/ST/STM32F1xx/Include/system_stm32f1xx.h"
 554              		.file 6 "Drivers/CMSIS/Device/ST/STM32F1xx/Include/stm32f103xb.h"
 555              		.file 7 "Drivers/STM32F1xx_HAL_Driver/Inc/stm32f1xx_hal_def.h"
 556              		.file 8 "Drivers/STM32F1xx_HAL_Driver/Inc/stm32f1xx_hal_rcc.h"
 557              		.file 9 "Drivers/STM32F1xx_HAL_Driver/Inc/stm32f1xx_hal_rcc_ex.h"
 558              		.file 10 "Drivers/STM32F1xx_HAL_Driver/Inc/stm32f1xx_hal_gpio.h"
 559              		.file 11 "Drivers/STM32F1xx_HAL_Driver/Inc/stm32f1xx_hal_dma.h"
 560              		.file 12 "Drivers/STM32F1xx_HAL_Driver/Inc/stm32f1xx_hal_i2c.h"
 561              		.file 13 "Drivers/STM32F1xx_HAL_Driver/Inc/stm32f1xx_hal_uart.h"
 562              		.file 14 "Drivers/STM32F1xx_HAL_Driver/Inc/stm32f1xx_hal.h"
 563              		.file 15 "c:\\program files (x86)\\gnu tools arm embedded\\9 2019-q4-major\\arm-none-eabi\\include
 564              		.file 16 "c:\\program files (x86)\\gnu tools arm embedded\\9 2019-q4-major\\arm-none-eabi\\include
 565              		.file 17 "c:\\program files (x86)\\gnu tools arm embedded\\9 2019-q4-major\\lib\\gcc\\arm-none-eab
 566              		.file 18 "c:\\program files (x86)\\gnu tools arm embedded\\9 2019-q4-major\\arm-none-eabi\\include
 567              		.file 19 "c:\\program files (x86)\\gnu tools arm embedded\\9 2019-q4-major\\arm-none-eabi\\include
 568              		.file 20 "Inc/queue.h"
 569              		.file 21 "Inc/port_handler.h"
 570              		.file 22 "Drivers/STM32F1xx_HAL_Driver/Inc/stm32f1xx_ll_dma.h"
 571              		.file 23 "Drivers/STM32F1xx_HAL_Driver/Inc/stm32f1xx_hal_cortex.h"
ARM GAS  C:\Users\Brandon\AppData\Local\Temp\ccAY6ihg.s 			page 16

